"                                        strong              "
"                      count "
"                     name "
"                    entsize "
"                    flags "
"                    ivars "
"                   size "
"                  magic "
"                  magic XAR_HEADER_MAGIC\n"
"                 reserved "
"                layout map: "
"                version "
"               cls "
"               ivarLayout "
"              baseMethods "
"              cksum_alg "
"              isa "
"              name "
"             instanceSize "
"             name "
"            baseProtocols "
"            cmd LC_DYLD_INFO_ONLY\n"
"            cmd LC_DYLD_INFO\n"
"            cmd LC_DYSYMTAB\n"
"            instanceStart "
"            Protocol extends past end of the section\n"
"            types "
"           baseProperties "
"           isa "
"           name: "
"           ntoc "
"           weakIvarLayout "
"          catch "
"          cleanup"
"          cmd ?("
"          cmd "
"          cmd LC_DYLD_ENVIRONMENT\n"
"          cmd LC_ENCRYPTION_INFO_64\n"
"          cmd LC_ENCRYPTION_INFO\n"
"          cmd LC_ID_DYLIB\n"
"          cmd LC_ID_DYLINKER\n"
"          cmd LC_LAZY_LOAD_DYLIB\n"
"          cmd LC_LOAD_DYLIB\n"
"          cmd LC_LOAD_DYLINKER\n"
"          cmd LC_LOAD_UPWARD_DYLIB\n"
"          cmd LC_LOAD_WEAK_DYLIB\n"
"          cmd LC_REEXPORT_DYLIB\n"
"          cmd LC_ROUTINES_64\n"
"          cmd LC_ROUTINES\n"
"          cmd LC_RPATH\n"
"          cmd LC_SUB_CLIENT\n"
"          cmd LC_SUB_FRAMEWORK\n"
"          cmd LC_SUB_LIBRARY\n"
"          cmd LC_SUB_UMBRELLA\n"
"          data "
"          E"
"          filter "
"          pad "
"         "
"         cache "
"         filesz "
"         length: 0x%8.8llx\n"
"         name ?(bad offset "
"         name "
"         next "
"         path ?(bad offset "
"         path "
"         protocols "
"         source: "
"         tocoff "
"         V6"
"         V7"
"         value"
"         version: %u\n"
"        ALL"
"        cmd "
"        cmd LC_THREAD\n"
"        cmd LC_UNIXTHREAD\n"
"        cmdsize "
"        CORE"
"        count "
"        DSYM"
"        list["
"        nextrel "
"        nlocrel "
"        nmodtab "
"        V4T"
"        V6M"
"        V7K"
"        V7M"
"        V7S"
"        V8"
"        vtable "
"       bind_off "
"       client ?(bad offset "
"       client "
"       cmd LC_BUILD_VERSION\n"
"       cmd LC_MAIN\n"
"       cmd LC_NOTE\n"
"       DYLIB"
"       line_base: %i\n"
"       mod_time: 0x%8.8llx\n"
"       name "
"       sdk "
"       sdk n/a\n"
"       size "
"       V7EM"
"      ["
"      % 6d  "
"      % 6d\n"
"      0x%02x: "
"      addr "
"      bind_size "
"      BUNDLE"
"      classMethods "
"      cmd ?("
"      cmd "
"      cmd LC_CODE_SIGNATURE\n"
"      cmd LC_DATA_IN_CODE\n"
"      cmd LC_DYLIB_CODE_SIGN_DRS\n"
"      cmd LC_FUNCTION_STARTS\n"
"      cmd LC_LINKER_OPTIMIZATION_HINT\n"
"      cmd LC_SEGMENT_64\n"
"      cmd LC_SEGMENT_SPLIT_INFO\n"
"      cmd LC_SEGMENT\n"
"      cmd LC_SOURCE_VERSION\n"
"      cmdsize "
"      count "
"      count ARM_EXCEPTION_STATE64_COUNT\n"
"      count ARM_THREAD_STATE_COUNT\n"
"      count ARM_THREAD_STATE64_COUNT\n"
"      count i386_THREAD_STATE_COUNT\n"
"      count x86_EXCEPTION_STATE_COUNT\n"
"      count x86_EXCEPTION_STATE64_COUNT\n"
"      count x86_FLOAT_STATE_COUNT\n"
"      count x86_THREAD_STATE_COUNT\n"
"      count x86_THREAD_STATE64_COUNT\n"
"      cryptid "
"      current version "
"      dir_index: %llu\n"
"      extreloff "
"      FVMLIB"
"      ilocalsym "
"      iundefsym "
"      line_range: %u\n"
"      list["
"      locreloff "
"      magic cputype cpusubtype  caps    filetype ncmds sizeofcmds      flags\n"
"      modtaboff "
"      nlocalsym "
"      nundefsym "
"      OBJECT"
"      sdk "
"      sdk n/a"
"      size "
"      state (Unknown cputype/cpusubtype)\n"
"      state (unknown)\n"
"      String name: %s, CU vector index: %d\n"
"      tool "
"      type"
"      V5TEJ"
"     align 2^"
"     ARM"
"     cmd LC_LINKER_OPTION\n"
"     cmd LC_SYMTAB\n"
"     cmd LC_UUID\n"
"     cryptoff "
"     EXECUTE"
"     export_off "
"     flags "
"     flavor "
"     flavor ARM_EXCEPTION_STATE64\n"
"     flavor ARM_THREAD_STATE\n"
"     flavor ARM_THREAD_STATE64\n"
"     flavor i386_THREAD_STATE\n"
"     flavor x86_EXCEPTION_STATE\n"
"     flavor x86_EXCEPTION_STATE64\n"
"     flavor x86_FLOAT_STATE\n"
"     flavor x86_THREAD_STATE\n"
"     flavor x86_THREAD_STATE64\n"
"     iextdefsym "
"     minos "
"     nextdefsym "
"     opcode_base: %u\n"
"     PPC"
"     PRELOAD"
"     rebase_off "
"     symtab "
"     umbrella ?(bad offset "
"     umbrella "
"     XSCALE"
"    -"
"    "
"    (none)\n"
"    ["
"    % 4d         "
"    % 4d %# 8x"
"    %d: Name offset = 0x%x, CU vector offset = 0x%x\n"
"    %d: Offset = 0x%llx, Length = 0x%llx\n"
"    ="
"    address_size: %u\n"
"    align 2^"
"    capabilities "
"    capabilities CPU_SUBTYPE_LIB64\n"
"    class_methods "
"    cmdsize "
"    compact encoding:     "
"    cpusubtype "
"    cpusubtype ("
"    cpusubtype CPU_SUBTYPE_ARM_ALL\n"
"    cpusubtype CPU_SUBTYPE_ARM_V4T\n"
"    cpusubtype CPU_SUBTYPE_ARM_V5TEJ\n"
"    cpusubtype CPU_SUBTYPE_ARM_V6\n"
"    cpusubtype CPU_SUBTYPE_ARM_V6M\n"
"    cpusubtype CPU_SUBTYPE_ARM_V7\n"
"    cpusubtype CPU_SUBTYPE_ARM_V7EM\n"
"    cpusubtype CPU_SUBTYPE_ARM_V7K\n"
"    cpusubtype CPU_SUBTYPE_ARM_V7M\n"
"    cpusubtype CPU_SUBTYPE_ARM_V7S\n"
"    cpusubtype CPU_SUBTYPE_ARM_XSCALE\n"
"    cpusubtype CPU_SUBTYPE_ARM64_ALL\n"
"    cpusubtype CPU_SUBTYPE_ARM64_E\n"
"    cpusubtype CPU_SUBTYPE_ARM64_V8\n"
"    cpusubtype CPU_SUBTYPE_I386_ALL\n"
"    cpusubtype CPU_SUBTYPE_X86_64_ALL\n"
"    cpusubtype CPU_SUBTYPE_X86_64_H\n"
"    cputype "
"    cputype ("
"    cputype CPU_TYPE_ARM\n"
"    cputype CPU_TYPE_ARM64_32\n"
"    cputype CPU_TYPE_ARM64\n"
"    cputype CPU_TYPE_I386\n"
"    cputype CPU_TYPE_X86_64\n"
"    cryptsize "
"    DLL Name: "
"    DYLINKER"
"    encoding["
"    export_size "
"    flags "
"    Flags: "
"    flags"
"    Frame offset: "
"    Frame register: "
"    gs  "
"    Haswell"
"    Hint/Ord  Name\n"
"    I386"
"    identifier "
"    length:               "
"    LOAD "
"    Low/High address = [0x%llx, 0x%llx) (Size: 0x%llx), CU id = %d\n"
"    LSDA:                 "
"    narguments "
"    nextrefsyms "
"    No frame pointer used\n"
"    NOTE "
"    nreloc "
"    ntools "
"    Number of Codes: "
"    offset "
"    OPENBSD_BOOTDATA "
"    OPENBSD_RANDOMIZE "
"    OPENBSD_WXNEEDED "
"    personality function: "
"    personality["
"    PHDR "
"    protocol_list "
"    protocol_name "
"    r9  "
"    rebase_size "
"    reloff "
"    reserved1 "
"    reserved2 "
"    reserved3 "
"    reserved4 "
"    reserved5 "
"    reserved6 "
"    Second level index["
"    size "
"    Size of prolog: "
"    Skipping 2nd level page with unknown kind "
"    Skipping section with unknown version\n"
"    start:                "
"    superclass "
"    TLS "
"    total_length: 0x%8.8llx\n"
"    Unwind Codes:\n"
"    uuid "
"    version "
"    Version: "
"   "
"   (category_t entends past the end of the section)\n"
"   (class_ro_t entends past the end of the section)\n"
"   (class_t entends past the end of the section)\n"
"   (ivar_list_t entends past the end of the section)\n"
"   (ivar_t entends past the end of the section)\n"
"   (message_ref entends past the end of the section)\n"
"   (method_list_t entends past the end of the section)\n"
"   (method_t entends past the end of the section)\n"
"   (method_t extends past the end of the section)\n"
"   (module extends past end of __module_info section)\n"
"   (objc_image_info entends past the end of the section)\n"
"   (objc_property entends past the end of the section)\n"
"   (objc_property_list entends past the end of the section)\n"
"   (protocol_list_t entends past the end of the section)\n"
"   (protocol_t * entends past the end of the section)\n"
"   (protocol_t entends past the end of the section)\n"
"   ARM64"
"   cmdsize "
"   count "
"   extrefsymoff "
"   instanceMethods "
"   md5_checksum: "
"   MH_MAGIC"
"   NOUNDEFS"
"   nsects "
"   nsyms "
"   PPC64"
"   r12  "
"   r15  "
"   rax  "
"   rbp  "
"   rdx  "
"   RELRO "
"   segname "
"   STACK "
"   time stamp "
"   version "
"   vmaddr "
"   vmsize "
"  -"
"  "
"  %-*s - %s.\n"
"  %-21s"
"  %10u"
"  0x%-19s"
"  0x%02x"
"  6 (?) "
"  7 (?) "
"  8 (?) "
"  9 (?) "
"  Address size:          %u\n"
"  Augmentation data:    "
"  Augmentation:          \""
"  cmdsize "
"  Code alignment factor: %u\n"
"  Common encodings array section offset:     "
"  Common encodings: (count = "
"  Data alignment factor: %d\n"
"  dataoff "
"  Default target: "
"  DYLIB_STUB"
"  End Address: "
"  End Address: 0x%04x\n"
"  Entry at offset "
"  entryoff "
"  esh.count "
"  F&C"
"  fileoff "
"  fp "
"  fsh.count "
"  Host CPU: "
"  imp "
"  Index array section offset:                "
"  init_module "
"  INTERP "
"  KEXTBUNDLE"
"  lazy_bind_off "
"  lookup %08x time %08x fwd %08x name %08x addr %08x\n\n"
"  LSDA Address: %08x\n"
"  LSDA descriptors:\n"
"  maxprot ?"
"  maxprot "
"  nindirectsyms "
"  Number of common encodings in array:       "
"  Number of indices in array:                "
"  Number of personality functions in array:  "
"  pc "
"  Personality Address: %08x\n"
"  Personality function array section offset: "
"  Personality functions: (count = "
"  platform "
"  Registered Targets:\n"
"  Return address column: %d\n"
"  Second level indices:\n"
"  sectname "
"  Segment desc size:     %u\n"
"  segname "
"  sel "
"  Start Address: "
"  Start Address: 0x%04x\n"
"  string #"
"  stroff "
"  sub_library ?(bad offset "
"  sub_library "
"  symoff "
"  This option category has no options.\n"
"  toc_length_compressed "
"  Top level indices: (count = "
"  tsh.count "
"  Type \""
"  Unwind Info Address: "
"  Unwind Info Address: 0x%04x\n"
"  version "
"  Version = "
"  Version:                                   "
"  Version:               %d\n"
"  weak_bind_off "
"  X86_64"
" -   "
" - "
" - ^ = "
" - constant: "
" - lineno: "
" ------------------------"
" --"
" -aligncomm:\""
" -help'\n"
" -help\n"
" ; ("
" .debug_line_str[0x%8.8x] = "
" .debug_str[0x%8.8x] = "
" "
" (-Infinity)\n"
" (?,?)"
" (?)\n"
" ("
" (%.16e)\n"
" (+Infinity)\n"
" (0x%16.16llx)"
" (architecture "
" (compatibility version "
" (default: "
" (does not match segment)\n"
" (entends past the end of the section)\n"
" (entries extends past the end of the indirect symbol table)"
" (entries start past the end of the indirect symbol table) (reserved1 field greater than the table size)"
" (Expected: "
" (for architecture "
" (forwarded to "
" (from "
" (greater than the number of symbols)\n"
" (ignoring feature)\n"
" (ignoring processor)\n"
" (imageInfo entends past the end of the section)\n"
" (index into indirect symbol table)\n"
" (JOP: diversity "
" (malformed, architectures past end of file)\n"
" (malformed, contains zero architecture types)\n"
" (max "
" (next unit at "
" (non-signaling Not-a-Number)\n"
" (none)"
" (none)\n"
" (not aligned on it's alignment (2^"
" (not ARM_EXCEPTION_STATE64_COUNT)\n"
" (not ARM_THREAD_STATE_COUNT)\n"
" (not ARM_THREAD_STATE64_COUNT)\n"
" (not in a literal section)\n"
" (not in an __OBJC section)"
" (not in an __OBJC section)\n"
" (not x86_EXCEPTION_STATE_COUNT)\n"
" (not x86_EXCEPTION_STATE64_COUNT)\n"
" (not x86_EXCEPTION_STATE64_COUNT\n"
" (not x86_FLOAT_STATE_COUNT)\n"
" (not x86_FLOAT_STATE64_COUNT\n"
" (not x86_THREAD_STATE_COUNT)\n"
" (not x86_THREAD_STATE32_COUNT)\n"
" (not x86_THREAD_STATE32_COUNT\n"
" (not x86_THREAD_STATE64_COUNT)\n"
" (not x86_THREAD_STATE64_COUNT\n"
" (not XAR_HEADER_MAGIC)\n"
" (offset "
" (past end of file)"
" (past end of file)\n"
" (past the end of the symbol table)\n"
" (Producer: '"
" (signaling Not-a-Number)\n"
" (size of stubs)\n"
" (struct class_ro_t *)"
" (struct method_list_t *)\n"
" (struct protocol_t *)\n"
" (unknown flags)\n"
" (unknown)\n"
" (valid values are [1,"
" (w/ length "
" (weak_import)"
" [ "
" ["
" [{0}]"
" [%llu]"
" [%s%*c"
" [%u] %c"
" [0x%04x]"
" [0x%08x]"
" [options]"
" [subcommand]"
" ]"
" { "
" {"
" {\n"
" {%"
" {z}"
" } "
" }"
" }\n"
" * "
" * $$"
" \""
" \t"
" \t\n\x0B\x0C\r"
" #"
" %.*s"
" %+lld"
" %02x"
" %04llx "
" %10d"
" %10u"
" %5u"
" %6u %3u %13u "
" %7d"
" %lld"
" %lld*code_alignment_factor"
" %lld*data_alignment_factor"
" %llx"
" %s%+lld"
" ^"
" + "
" + = "
" + $$"
" + 0x%04x"
" <"
" <<NULL ALIASEE>>"
" <subcommand> -help\" to get more help on a specific subcommand"
" <unknown operation "
" <unknown>"
" = !{"
" = "
" = type "
" => "
" => {"
" => 0x%8.8x"
" | "
" $T0 "
" 0x%*.*llx"
" 0x%*.*llx)"
" 0x%02x"
" 0x%08llX"
" 0x%08x"
" 0x%llx"
" 0x%x"
" 10 (?) "
" 11 (?) "
" 12 (?) "
" 13 (?) "
" 14 (?) "
" 15 (?) "
" abbr_offset = "
" add"
" addr_size = "
" addrspace("
" afn"
" align "
" ALLMODSBOUND"
" ALLOW_STACK_EXECUTION"
" and "
" and"
" APP_EXTENSION_SAFE"
" arcp"
" argument is out of bounds"
" argument must refer to an integer parameter"
" ARM_EXCEPTION_STATE64 extends past end of command in "
" ARM_THREAD_STATE extends past end of command in "
" ARM_THREAD_STATE64 extends past end of command in "
" ARM64_32"
" at address: 0x"
" at offset "
" atomic"
" attributes.\n"
" back to node: 0x"
" bad ordinal: 0x"
" bad segOffset, not 8-byte aligned"
" basic_block"
" BINDATLOAD"
" BINDS_TO_WEAK"
" busy "
" bytes"
" c0 "
" c1 "
" c2 "
" c3 "
" CANONICAL"
" CLS_CLASS"
" CLS_META"
" cmdsize "
" cmdsize not a multiple of 4"
" cmdsize not a multiple of 8"
" cmdsize too small"
" comdat"
" command "
" command can't be checked"
" command"
" COMPILER BARRIER"
" complex"
" contents:\n"
" contract"
" count in "
" count not ARM_EXCEPTION_STATE64_COUNT for flavor number "
" count not ARM_THREAD_STATE_COUNT for flavor number "
" count not ARM_THREAD_STATE64_COUNT for flavor number "
" count not PPC_THREAD_STATE_COUNT for flavor number "
" count not x86_EXCEPTION_STATE_COUNT for flavor number "
" count not x86_EXCEPTION_STATE64_COUNT for flavor number "
" count not x86_FLOAT_STATE_COUNT for flavor number "
" count not x86_THREAD_STATE_COUNT for flavor number "
" count not x86_THREAD_STATE32_COUNT for flavor number "
" count not x86_THREAD_STATE64_COUNT for flavor number "
" cs  "
" CU offset "
" current version "
" datasize "
" DEAD_STRIPPABLE_DYLIB"
" DEBUG"
" default_is_stmt: %u\n"
" denorm "
" DLL name: "
" does not contain "
" does not match number of strings "
" does not match number of strings"
" DWO_id = "
" dyld name extends past the end of the load command"
" DYLDLINK"
" DYNAMIC "
" ebp "
" ebx    "
" ecx "
" edx "
" eflags "
" eip "
" end_sequence"
" entries"
" entries)\n"
" epilogue_begin"
" err "
" error code"
" es     "
" esi    "
" esp "
" esr "
" exact"
" exception "
" EXT_RELOC"
" extends past end of command"
" extends past end of file"
" extends past end of trie data"
" extends past the end all load commands in the file"
" extends past the end of the file"
" extends past the end of the member or archive for archive member header at offset "
" fast"
" faultvaddr "
" filenum: "
" fileoff field in "
" fileoff field plus filesize field in "
" filesize "
" filesize field in "
" for .file directives"
" for "
" for architecture "
" for child #"
" for cmd value of: "
" for cputype ("
" for opcode at: 0x"
" for section "
" for symbol at index "
" for the number of sections"
" FORCE_FLAT"
" fpu_dp "
" fpu_ds "
" fpu_fop "
" fpu_ip "
" fpu_mxcsr "
" fpu_mxcsrmask "
" fpu_reserved[1] "
" fpu_rsrv1 "
" fpu_rsrv2 "
" from "
" fs   "
" fs  "
" FVMLIB"
" gc \""
" GC-only"
" GC"
" greater than than the segment's vmaddr plus vmsize"
" greater than the segment"
" greater than vmsize field"
" gs  "
" half = 0x%04x "
" has "
" has incorrect cmdsize"
" HIGHVM"
" imaginary"
" in '.build_version' directive"
" in '.cfi_startproc' directive"
" in '.cv_fpo_data' directive"
" in '.org' directive"
" in '"
" in "
" in accelerator table does not match Tag "
" in directive"
" in export trie data at node: 0x"
" in flags: 0x"
" in pointer: 0x"
" inbounds"
" inconsistent cmdsize in "
" Inconsistent size\n"
" Incorrect size\n"
" INCRLINK"
" indexed (%8.8x) address = "
" indexed (%8.8x) string = "
" indirectsymoff "
" init_address "
" initprot ?"
" initprot "
" InlineAsm End"
" InlineAsm Start"
" instance_methods "
" intrinsic address/value"
" intrinsic expression"
" intrinsic requires a !dbg attachment"
" intrinsic variable"
" is invalid (must be less than CU size of "
" is not a Mach-O file or an archive file"
" is not a multiple of "
" is not a valid parameter qualifier for '"
" is obsolete and not supported"
" is out of range."
" is past end of segment)"
" is past end of the same page)"
" is_stmt"
" label and !dbg attachment"
" lazy_bind_size "
" LAZY_INIT"
" LC_BUILD_VERSION_COMMAND has incorrect cmdsize"
" LC_DYSYMTAB cmdsize too small"
" LC_LINKER_OPTION cmdsize too small"
" LC_LINKER_OPTION string count "
" LC_NOTE has incorrect cmdsize"
" LC_RPATH cmdsize too small"
" LC_RPATH library name extends past the end of the load command"
" LC_RPATH path.offset field extends past the end of the load command"
" LC_RPATH path.offset field too small, not past the end of the rpath_command struct"
" LC_SUB_CLIENT cmdsize too small"
" LC_SUB_FRAMEWORK cmdsize too small"
" LC_SUB_LIBRARY cmdsize too small"
" LC_SUB_UMBRELLA cmdsize too small"
" LC_SYMTAB cmdsize too small"
" LC_TWOLEVEL_HINTS has incorrect cmdsize"
" length %llx"
" length = "
" less than the segment's vmaddr"
" levels deep."
" LIB64"
" library name extends past the end of the load command"
" lies outside valid range\n"
" list pointer extends past end of ("
" LIVE_SUPPORT"
" LOC_RELOC"
" lr  "
" macro: "
" major version number, integer expected"
" major version number"
" max"
" MH_HAS_TLV_DESCRIPTORS"
" MH_NO_HEAP_EXECUTION"
" min_inst_length: %u\n"
" min"
" minor version number required, comma expected"
" minor version number, integer expected"
" minor version number"
" name = '"
" name extends past the end of the load command"
" name.offset field extends past the end of the load command"
" name.offset field too small, not past the end of the dylib_command struct"
" name.offset field too small, not past the end of the dylinker_command struct"
" name\n"
" nand"
" ninf"
" NLIST_OUTOFSYNC_WITH_DYLDINFO"
" nnan"
" No predecessors!"
" NO_DEAD_STRIP"
" NO_REEXPORTED_DYLIBS"
" NO_TOC"
" NOFIXPREBINDING"
" NOMULTIDEFS"
" NORELOC"
" not currently supported for this target"
" not implemented\n"
" not in the section\n"
" not past the headers of the file"
" nsw"
" nsz"
" nuw"
" OBJC_IMAGE_HAS_CATEGORY_CLASS_PROPERTIES"
" OBJC_IMAGE_IS_REPLACEMENT"
" OBJC_IMAGE_IS_SIMULATED"
" OBJC_IMAGE_SUPPORTS_GC"
" objc_method_description_list extends past end of the section\n"
" of DIE["
" offset to next pointer in the chain after one at address: 0x"
" Opcode %x"
" operand to"
" option: "
" or"
" Ordinal      RVA  Name\n"
" Ordinal base: "
" other_half = 0x%04x "
" overlaps universal headers"
" ovrfl "
" past the end of string table, for N_INDR symbol at index "
" past the end of string table, for symbol at index "
" past the end of the string table for archive member header at offset "
" pc  "
" personality "
" PIE"
" positional argument"
" positional arguments: See: "
" PPC_THREAD_STATE extends past end of command in "
" PREBINDABLE"
" PREBOUND"
" precis "
" preds = "
" prefix "
" prologue "
" prologue_end"
" prologue_length: 0x%8.8llx\n"
" PROTECTED_VERSION_1"
" PURE_INSTRUCTIONS"
" r1     "
" r10 "
" r11  "
" r11 "
" r13 "
" r14  "
" r2  "
" r3  "
" r5     "
" r6  "
" r7  "
" r8   "
" r9     "
" rbx "
" rcx  "
" rdi "
" reassoc"
" redeclared as different type"
" reg%lld"
" remaining in buffer"
" remaining list entries extend past the of the section\n"
" reserved1 "
" reserved2 "
" rip "
" RO_HAS_CXX_STRUCTORS"
" RO_META"
" RO_ROOT"
" RR"
" rsi  "
" rsp "
" S_16BYTE_LITERALS\n"
" S_4BYTE_LITERALS\n"
" S_8BYTE_LITERALS\n"
" S_COALESCED\n"
" S_CSTRING_LITERALS\n"
" S_DTRACE_DOF\n"
" S_INTERPOSING\n"
" S_LAZY_DYLIB_SYMBOL_POINTERS\n"
" S_LAZY_SYMBOL_POINTERS\n"
" S_LITERAL_POINTERS\n"
" S_MOD_INIT_FUNC_POINTERS\n"
" S_MOD_TERM_FUNC_POINTERS\n"
" S_NON_LAZY_SYMBOL_POINTERS\n"
" S_REGULAR\n"
" S_SYMBOL_STUBS\n"
" S_THREAD_LOCAL_INIT_FUNCTION_POINTERS\n"
" S_THREAD_LOCAL_REGULAR\n"
" S_THREAD_LOCAL_VARIABLE_POINTERS\n"
" S_THREAD_LOCAL_VARIABLES\n"
" S_THREAD_LOCAL_ZEROFILL\n"
" S_ZEROFILL\n"
" section \""
" seg_select_size: %u\n"
" SELF_MODIFYING_CODE"
" SIM_SUPPORT"
" slots, but only "
" SOME_INSTRUCTIONS"
" sp     "
" sp  "
" SPLIT_SEGS"
" stacksize "
" starts past end of trie data"
" stkflt "
" string: "
" STRIP_STATIC_SYMS"
" strsize "
" structs would extend past the end of the file"
" sub_umbrella ?(bad offset "
" sub_umbrella "
" sub"
" SUBSECTIONS_VIA_SYMBOLS"
" Swift 1.0"
" Swift 1.1"
" Swift 2.0"
" Swift 3.0"
" Swift 4.0"
" Swift 4.1/Swift 4.2"
" Swift 5 or later"
" Swift class"
" syncscope(\""
" that points to DIE with incompatible tag "
" to "
" too big and extends past end of trie data"
" tos "
" total bytes)\n"
" TWOLEVEL"
" type_offset = "
" type_signature = "
" umax"
" umin"
" undfl "
" unit_offset = "
" unit_size = "
" unit_type = "
" UNKNOWN "
" unknown flavor ("
" unknown future Swift version ("
" Unsupported "
" UNW_ChainInfo"
" UNW_ExceptionHandler"
" UNW_TerminateHandler"
" unwind "
" Use -asm-macro-max-nesting-depth to increase this limit."
" used while targeting "
" variable and !dbg attachment"
" version "
" version = "
" version number, integer expected"
" version number"
" void"
" volatile"
" weak_bind_size "
" WEAK_DEFINES"
" weak"
" where actual size was: 0x"
" which is a ARM_EXCEPTION_STATE64 flavor in "
" which is a ARM_THREAD_STATE flavor in "
" which is a ARM_THREAD_STATE64 flavor in "
" which is a PPC_THREAD_STATE flavor in "
" which is a x86_EXCEPTION_STATE flavor in "
" which is a x86_EXCEPTION_STATE64 flavor in "
" which is a x86_FLOAT_STATE flavor in "
" which is a x86_THREAD_STATE flavor in "
" which is a x86_THREAD_STATE32 flavor in "
" which is a x86_THREAD_STATE64 flavor in "
" which requires "
" with a size of "
" with size less than 8 bytes"
" with value "
" within "
" x "
" x1  "
" x10 "
" x11 "
" x13 "
" x14 "
" x16 "
" x17 "
" x19 "
" x2  "
" x20 "
" x22 "
" x23 "
" x25 "
" x26 "
" x28 "
" x4  "
" x5  "
" x7  "
" x8  "
" x86_EXCEPTION_STATE extends past end of command in "
" x86_EXCEPTION_STATE64 extends past end of command in "
" x86_FLOAT_STATE extends past end of command in "
" x86_THREAD_STATE extends past end of command in "
" x86_THREAD_STATE32 extends past end of command in "
" x86_THREAD_STATE64 extends past end of command in "
" xchg"
" XMM"
" xor"
" zdiv "
"__.SYMDEF_64 SORTED"
"__aeabi_unwind_cpp_pr"
"__apple_names"
"__apple_namespac"
"__apple_objc"
"__apple_types"
"__bss"
"__cat_cls_meth"
"__cat_inst_meth"
"__category_list"
"__category"
"__cfstring"
"__clangast"
"__class_list"
"__class_refs"
"__class_vars"
"__class"
"__cls_meth"
"__cls_refs"
"__common"
"__compact_unwind"
"__const_coal"
"__const"
"__constructor"
"__cstring"
"__DATA_CONST"
"__DATA_DIRTY"
"__data"
"__datacoal_nt"
"__debug_abbrev"
"__debug_aranges"
"__debug_cu_index"
"__debug_frame"
"__debug_gnu_pubn"
"__debug_gnu_pubt"
"__debug_info"
"__debug_inlined"
"__debug_line_str"
"__debug_line"
"__debug_loc"
"__debug_macinfo"
"__debug_names"
"__debug_pubnames"
"__debug_pubtypes"
"__debug_ranges"
"__debug_rnglists"
"__debug_str_offs"
"__debug_str"
"__debug_tu_index"
"__destructor"
"__DWARF"
"__dyld"
"__eh_frame"
"__float128"
"__fvmlib_init0"
"__fvmlib_init1"
"__gcc_except_tab"
"__image_info"
"__imp_"
"__inst_meth"
"__instance_vars"
"__int128"
"__la_symbol_ptr"
"__LD"
"__literal16"
"__literal4"
"__literal8"
"__llvm_faultmaps"
"__llvm_stackmaps"
"__message_refs"
"__meta_class"
"__mh_execute_header"
"__mh_preload_header"
"__mod_init_func"
"__mod_term_func"
"__module_info"
"__nl_symbol_ptr"
"__null"
"__objc_catlist"
"__objc_classlist"
"__objc_classrefs"
"__objc_imageinfo"
"__objc_msgrefs"
"__objc_protolist"
"__objc_selrefs"
"__objc_superrefs"
"__OBJC"
"__OBJC2"
"__picsymbol_stub"
"__protocol_list"
"__protocol"
"__ptrauth("
"__selector_strs"
"__static_const"
"__static_data"
"__string_object"
"__super_refs"
"__swift_ast"
"__symbol_stub"
"__symbols"
"__TEXT_EXEC"
"__text"
"__textcoal_nt"
"__thread_bss"
"__thread_data"
"__thread_init"
"__thread_ptr"
"__thread_vars"
"__unnamed_"
"__unwind_info"
"__ustring"
"__Z"
"_"
"_64"
"_bb "
"_be"
"_C"
"_GLOBAL_OFFSET_TABLE_"
"_objc_msgSend"
"_objc_msgSendSuper2"
"_unknown_"
"_Z"
"------------------ ------ ------ ------ --- ------------- -------------\n"
"---"
"--"
"-"
"-/+"
"-\n"
"-%%%%%%."
"-%%%%%%"
"-%llxh"
"-="
"->"
"->*"
"-0%llxh"
"-0x%llx"
"-1"
"-2"
"-4"
"-64bit-mode,-32bit-mode,+16bit-mode"
"-64bit-mode,+32bit-mode,-16bit-mode"
"-aes"
"-crc"
"-crypto"
"-darwin"
"-dis-symname: __mh_execute_header not in any section\n"
"-dis-symname: "
"-dotprod"
"-dsp"
"-fullfp16"
"-Inf"
"-macos"
"-ras"
"-sha2"
",  line += "
", ..."
", "
", ["
", { "
", {sae}, "
", {sae}"
", \""
", #"
", #0.0"
", #0"
", #1"
", #16"
", #32"
", #8"
", %al"
", %ax"
", %dx"
", %eax"
", %rax"
", %st(0)"
", 0x"
", 0x%02hhx"
", 0x0"
", address "
", addrspace("
", al"
", align "
", apsr"
", asr "
", ax"
", cl"
", dir="
", dx"
", eax"
", faulting PC offset: "
", Format = "
", fpexc"
", fpinst"
", fpinst2"
", fpscr"
", fpsid"
", handling PC offset: "
", have the same DW_AT_stmt_list section offset:\n"
", length="
", lsl "
", lsl #"
", mod_time="
", mul "
", mul vl]"
", mvfr0"
", mvfr1"
", mvfr2"
", NumFaultingPCs: "
", overlaps "
", overlaps cputype ("
", platform value is not allowed when the mach header flag MH_SIM_SUPPORT is set"
", rax"
", ror "
", section \""
", spsr"
", st(0)"
", Version = "
", xmm0"
",?) "
","
",\""
",#alloc"
",#exclude"
",#execinstr"
",#tls"
",#write"
",comdat"
",none,"
",unique,"
"; "
"; Error: Block without parent!"
"; Function Attrs: "
"; Materializable\n"
"; ModuleID = '"
";"
": '"
": "
": ["
": \""
": CommandLine Error: Option '"
": Compile Unit:"
": Did you mean '-"
": error reading file: "
": error: unable to get target for '"
": for the -"
": is not an object file\n"
": No architecture specified.\n"
": Not enough positional command line arguments specified!\n"
": See: "
": Too many positional arguments specified!\n"
": Type Unit:"
": Unexpected decode table opcode!\n"
": Unknown command line argument '"
": warning: "
":"
":\n"
":\tfile format "
":\tfile format COFF-import-file"
":lower16:"
":lower16:("
":upper16:"
":upper16:("
"!, "
"!"
"!{"
"!\""
"!\"#$%&'()*+,-./:;<=>?@[\]^_`{|}~"
"!<unknown kind #"
"!="
"!Analysis"
"!AnalysisAliasing"
"!AnalysisFPCommute"
"!dbg attachment of global variable must be a DIGlobalVariableExpression"
"!dbg attachment points at wrong subprogram for function"
"!DIBasicType("
"!DICompileUnit("
"!DICompositeType("
"!DIDerivedType("
"!DIEnumerator("
"!DIExpression("
"!DIFile("
"!DIGlobalVariable("
"!DIGlobalVariableExpression("
"!DIImportedEntity("
"!DILabel("
"!DILexicalBlock("
"!DILexicalBlockFile("
"!DILocalVariable("
"!DILocation("
"!DIMacro("
"!DIMacroFile("
"!DIModule("
"!DINamespace("
"!DIObjCProperty("
"!DISubprogram("
"!DISubrange("
"!DISubroutineType("
"!DITemplateTypeParameter("
"!DITemplateValueParameter("
"!Failure"
"!GenericDINode("
"!Missed"
"!Passed"
"!prof annotations should have no less than 2 operands"
"???"
"?"
"?(%2d)  "
"?(%d)\n"
". Offset is in between DIEs:\n"
"..."
"...\n"
".."
"."
".*"
".\n"
".16\t"
".16\t{"
".16b, "
".16b, #0"
".16b, #8"
".16b"
".1d, "
".1d"
".1q, "
".2byte"
".2d, "
".2d, #0.0"
".2d, #0"
".2d"
".2h, "
".2h"
".2s, "
".2s, #0.0"
".2s, #0"
".2s, #32"
".2s"
".32\t"
".32\t{"
".4b"
".4byte"
".4h, "
".4h, #0.0"
".4h, #0"
".4h, #16"
".4h"
".4s, "
".4s, #0.0"
".4s, #0"
".4s, #32"
".4s"
".64\t"
".8\t"
".8\t{"
".8b, "
".8b, #0"
".8b, #8"
".8b"
".8byte"
".8h, "
".8h, #0.0"
".8h, #0"
".8h, #16"
".8h"
".abort '"
".abort detected. Assembly stopping."
".abort"
".addrsig_sym"
".addrsig"
".align"
".align32"
".alt_entry must preceed symbol definition"
".alt_entry"
".altmacro"
".apple_names"
".apple_namespaces"
".apple_objc"
".apple_types"
".ARM.attributes"
".ARM.exidx"
".ARM.extab"
".ascii"
".asciz"
".b"
".balign"
".balignl"
".balignw"
".bridgeos_version_min"
".bss."
".bss"
".build_version"
".bundle_align_mode cannot be changed once set"
".bundle_align_mode"
".bundle_lock forbidden when bundling is disabled"
".bundle_lock"
".bundle_unlock forbidden when bundling is disabled"
".bundle_unlock without matching lock"
".bundle_unlock"
".byte"
".cfi_adjust_cfa_offset"
".cfi_def_cfa_offset"
".cfi_def_cfa_register"
".cfi_def_cfa"
".cfi_endproc"
".cfi_escape"
".cfi_lsda"
".cfi_offset"
".cfi_personality"
".cfi_register"
".cfi_rel_offset"
".cfi_remember_state"
".cfi_restore_state"
".cfi_restore"
".cfi_return_column"
".cfi_same_value"
".cfi_sections"
".cfi_signal_frame"
".cfi_startproc"
".cfi_undefined"
".cfi_window_save"
".cg_profile"
".code\t16"
".code\t32"
".code16"
".code16gcc"
".code32"
".code64"
".comm"
".comment"
".common"
".const_data"
".const"
".constructor"
".cstring"
".cv_def_range"
".cv_file"
".cv_filechecksumoffset"
".cv_filechecksums"
".cv_fpo_data"
".cv_fpo_endproc must appear after .cv_proc"
".cv_func_id"
".cv_inline_linetable"
".cv_inline_site_id"
".cv_linetable"
".cv_loc"
".cv_stringtable"
".d"
".data_region"
".data."
".data.rel.ro"
".data.rel"
".data"
".dc.a"
".dc.b"
".dc.d"
".dc.l"
".dc.s"
".dc.w"
".dc.x"
".dc"
".dcb.b"
".dcb.d"
".dcb.l"
".dcb.s"
".dcb.w"
".dcb.x"
".dcb"
".debug_abbrev.dwo"
".debug_abbrev"
".debug_addr table at offset 0x%x contains data of size %u which is not a multiple of addr size %hhu"
".debug_addr table at offset 0x%x has address size %hhu which is different from CU address size %hhu"
".debug_addr table at offset 0x%x has too small length (0x%x) to contain a complete header"
".debug_addr table at offset 0x%x has unsupported address size %hhu"
".debug_addr table at offset 0x%x has unsupported segment selector size %hhu"
".debug_addr table at offset 0x%x has version %hu which is different from the version suggested by the DWARF unit header: %hu"
".debug_addr"
".debug_aranges"
".debug_cu_index"
".debug_frame"
".debug_gnu_pubnames"
".debug_gnu_pubtypes"
".debug_info.dwo"
".debug_info"
".debug_line_str"
".debug_line.dwo"
".debug_line"
".debug_line["
".debug_loc.dwo"
".debug_loc"
".debug_macinfo"
".debug_names"
".debug_pubnames"
".debug_pubtypes"
".debug_ranges"
".debug_rnglists.dwo"
".debug_rnglists"
".debug_str_offsets.dwo"
".debug_str_offsets"
".debug_str.dwo"
".debug_str"
".debug_tu_index"
".debug_types.dwo"
".debug_types"
".debug"
".debug$H"
".debug$S"
".debug$T"
".def"
".desc"
".destructor"
".double"
".drectve"
".ds.b"
".ds.d"
".ds.l"
".ds.p"
".ds.s"
".ds.w"
".ds.x"
".ds"
".dSYM"
".dump"
".dwp"
".dyld"
".eh_frame"
".else"
".elseif"
".end_data_region"
".end"
".endef"
".endif"
".endm"
".endmacro"
".endmacro\n"
".endr"
".endr\n"
".equ"
".equiv"
".err encountered"
".err"
".error argument must be a string"
".error directive invoked in source file"
".error"
".even"
".exitm"
".extern"
".f16.f32\t"
".f16.f64\t"
".f16.s16\t"
".f16.s32\t"
".f16.u16\t"
".f16.u32\t"
".f16\t"
".f32.f16\t"
".f32.f64\t"
".f32.s16\t"
".f32.s32\t"
".f32.u16\t"
".f32.u32\t"
".f32\t"
".f64.f16\t"
".f64.f32\t"
".f64.s16\t"
".f64.s32\t"
".f64.u16\t"
".f64.u32\t"
".f64\t"
".file"
".fill"
".fini_array."
".float"
".framework/"
".fvmlib_init0"
".fvmlib_init1"
".gcc_except_table"
".gfids$y"
".global"
".globl"
".gnu_index"
".h"
".hidden "
".hidden"
".i16\t"
".i32\t"
".i64\t"
".i8\t"
".ident"
".if"
".ifb"
".ifc"
".ifdef"
".ifeq"
".ifeqs"
".ifge"
".ifgt"
".ifle"
".iflt"
".ifnb"
".ifnc"
".ifndef"
".ifne"
".ifnes"
".ifnotdef"
".incbin"
".include"
".indirect_symbol"
".init_array."
".int"
".internal"
".ios_version_min"
".irp"
".irpc"
".L"
".lazy_reference"
".lazy_symbol_pointer"
".lcomm"
".line"
".linker_option"
".linkonce"
".literal16"
".literal4"
".literal8"
".llvm_faultmaps"
".llvm_stackmaps"
".llvmbc"
".load"
".loc"
".local"
".long"
".lsym"
".macosx_version_min"
".macro"
".macros_off"
".macros_on"
".mod_init_func"
".mod_term_func"
".no_dead_strip"
".noaltmacro"
".non_lazy_symbol_pointer"
".note.GNU-stack"
".note"
".objc_cat_cls_meth"
".objc_cat_inst_meth"
".objc_category"
".objc_class_names"
".objc_class_vars"
".objc_class"
".objc_cls_meth"
".objc_cls_refs"
".objc_inst_meth"
".objc_instance_vars"
".objc_message_refs"
".objc_meta_class"
".objc_meth_var_names"
".objc_meth_var_types"
".objc_module_info"
".objc_protocol"
".objc_selector_strs"
".objc_string_object"
".objc_symbols"
".octa"
".offset field extends past the end of the load command"
".offset field too small, not past the end of the "
".old"
".org"
".p0i8"
".p2align"
".p2alignl"
".p2alignw"
".p8\t"
".pdata"
".picsymbol_stub"
".popsection without corresponding .pushsection"
".popsection"
".preinit_array."
".previous without corresponding .section"
".previous"
".print"
".private_extern"
".protected"
".purgem"
".pushsection"
".quad"
".rdata"
".reference"
".reloc"
".rep"
".rept"
".rodata."
".rodata.cst"
".rodata.cst16"
".rodata.cst32"
".rodata.cst4"
".rodata.cst8"
".rodata"
".rva"
".s"
".s16.f16\t"
".s16.f32\t"
".s16.f64\t"
".s16\t"
".s32.f16\t"
".s32.f32\t"
".s32.f64\t"
".s32\t"
".s64\t"
".s8\t"
".safeseh"
".scl"
".secidx"
".secrel32"
".section"
".secure_log_reset"
".secure_log_unique specified multiple times"
".secure_log_unique used but AS_SECURE_LOG_FILE environment variable unset."
".secure_log_unique"
".seh_ directive must appear within an active frame"
".seh_* directives are not supported on this target"
".seh_endchained"
".seh_endproc"
".seh_endprologue"
".seh_handler"
".seh_handlerdata"
".seh_proc"
".seh_pushframe"
".seh_pushreg"
".seh_savereg"
".seh_savexmm"
".seh_setframe"
".seh_stackalloc"
".seh_startchained"
".set"
".short"
".single"
".size"
".skip"
".sleb128"
".space"
".splat"
".splatinsert"
".stabs"
".stack_sizes"
".static_const"
".static_data"
".string"
".subsection"
".subsections_via_symbols"
".sxdata"
".symbol_resolver"
".symbol_stub"
".symidx"
".symver"
".tbss."
".tbss"
".tdata."
".tdata"
".text."
".text"
".thread_init_func"
".thread_local_variable_pointer"
".tls$"
".tlv"
".tvos_version_min"
".type"
".u16.f16\t"
".u16.f32\t"
".u16.f64\t"
".u16\t"
".u32.f16\t"
".u32.f32\t"
".u32.f64\t"
".u32\t"
".u64\t"
".u8\t"
".uleb128"
".value"
".version"
".w"
".w\t"
".warning argument must be a string"
".warning directive invoked in source file"
".warning"
".watchos_version_min"
".weak_def_can_be_hidden"
".weak_definition"
".weak_reference"
".weak"
".weakref"
".xdata"
".zdebug"
".zero"
".zerofill"
"' (already modified)"
"' (at offset '"
"' (no symbols present)"
"' begins"
"' can not be undefined in a subtraction expression"
"' detected. Assembly stopping."
"' directive with negative repeat count has no effect"
"' directive"
"' does not apply to function returns"
"' does not apply to functions!"
"' does not exist for macro '"
"' does not have terminator!\n"
"' for archive member header at offset "
"' for the archive member header at offset "
"' has multiple parameters named '"
"' in -pass-remarks: "
"' in auth relocation"
"' in file, no current macro definition"
"' in macro '"
"' in resulting scattered relocation."
"' is all messed up!\n"
"' is already defined"
"' is already linkonce"
"' is external."
"' is invalid value for boolean argument! Try 0 or 1"
"' is not a recognized feature for this target"
"' is not a recognized processor for this target"
"' is not defined"
"' not defined"
"' only applies to functions!"
"' out of range"
"' Reader: 'LLVM "
"' registered more than once!\n"
"' should be last one in the list of parameters."
"' specified."
"' value invalid for integer argument!"
"' value invalid for uint argument!"
"' vs current: '"
"', "
"', see --version and --triple.\n"
"': "
"'!"
"'?\n"
"'.  Try: '"
"'. Must have non-local symbol earlier in section."
"'.\n"
"'.fill' directive pattern has been truncated to 32-bits"
"'.fill' directive with negative repeat count has no effect"
"'.fill' directive with negative size has no effect"
"'.fill' directive with size greater than 8 has been truncated to 8"
"'"
"')"
"'\n"
"'allocsize' "
"'common' global may not be in a Comdat!"
"'common' global may not be marked constant!"
"'common' global must have a zero initializer!"
"'for the -arch option\n"
"'Linker Options' named metadata no longer supported"
"'s cputype does not match object file's mach header"
"'z' must be the first character at %lx"
""
"(?,?)\n"
"("
"()"
"(0x%16.16llx)"
"(anonymous namespace)"
"(clang-1001.0.46.4)"
"(date: \""
"(fl 0x00)"
"(illegal duplicate architecture) "
"(mode: \""
"(not in an __OBJC section)"
"(not in an __OBJC section)\n"
"(nx "
"(scl "
"(sec "
"(size of stubs in reserved2 field is zero)\n"
"(struct class_ro_t *)"
"(struct method_list_t *)"
"(struct protocol_t *)"
"(ty "
"(unknown)"
") "
") (maximum 2^"
") %u entries"
") and root DIE ("
") at offset "
") attempted to be registered!\n"
") cpusubtype ("
") do not match.\n"
") extends past the end of the file"
") for flavor number "
") for name of "
") for opcode at: 0x"
") in "
") in export trie data at node: 0x"
") into 24 bits of scattered relocation entry."
") load command "
") not aligned on it's alignment (2^"
") of LC_DYSYMTAB command "
") of LC_SYMTAB command "
") offset "
") section\n"
") too large for cputype ("
"): "
"):\n"
")"
"))"
")\n"
"[ "
"[:<:]]"
"[:>:]]"
"["
"[], "
"[]"
"[]}, "
"[]}"
"[0x%*.*llx, "
"[0x%08x, 0x%08x) "
"[pc, "
"[re-export] "
"] "
"] decreases in address from previous row:\n"
"] has invalid file index "
"] is a duplicate of file_names["
"] row["
"] unwind "
"] was not able to be parsed for CU:\n"
"], "
"]: "
"]:\n"
"]!"
"].\n"
"].dir_idx contains an invalid index: "
"].prologue.file_names["
"]"
"]):\n"
"]["
"]}, "
"]\n"
"]="
"{ "
"{"
"{}"
"{0:x8}"
"{0}: "
"{0}: {1}\n"
"{0}"
"{1to16}, "
"{1to16}"
"{1to2}, "
"{1to2}"
"{1to4}, "
"{1to4}"
"{1to8}, "
"{1to8}"
"{rd-sae}"
"{rn-sae}"
"{ru-sae}"
"{rz-sae}"
"} {z}, "
"} {z}"
"}, "
"}"
"}\n"
"@"
"@@"
"@@@"
"@GOT"
"@TLV"
"*"
"*** unknown regexp error code ***"
"*="
"*ABS*"
"*COM*"
"*no default*"
"*UND*"
"/"
"// "
"// %012llX: "
"//"
"/="
"/m, "
"/SYM64/"
"/usr/lib/debug"
"/z, "
"/z, ["
"/z"
"\" and \""
"\" contains non-decimal chars) "
"\" contains non-octal chars) "
"\" is deprecated"
"\" not the correct \"`\n\" values for the archive member header "
"\", \""
"\"
"\","
"\""
"\")"
"\"\n"
"\"%s\""
"\"can't happen\" -- you found a bug"
"\/"
"\\"
"\\""
"\n          to "
"\n    "
"\n    %d(0x%x): "
"\n  "
"\n  ]"
"\n  Address area offset = 0x%x, has %lld entries:"
"\n  AddressOfCallBacks: "
"\n  AddressOfIndex: "
"\n  Alignment: "
"\n  Characteristics: "
"\n  Constant pool offset = 0x%x, has %lld CU vectors:"
"\n  Critical Section Default Timeout: "
"\n  CSD Version: "
"\n  CU list offset = 0x%x, has %lld entries:"
"\n  Decommit Free Block Threshold: "
"\n  Decommit Total Free Threshold: "
"\n  EndAddressOfRawData: "
"\n  GlobalFlags Clear: "
"\n  GlobalFlags Set: "
"\n  Lock Prefix Table: "
"\n  Major Version: "
"\n  Maximum Allocation Size: "
"\n  Minor Version: "
"\n  Process Affinity Mask: "
"\n  Process Heap Flags: "
"\n  Security Cookie: "
"\n  SEH Count: "
"\n  SEH Table: "
"\n  SizeOfZeroFill: "
"\n  StartAddressOfRawData: "
"\n  Symbol table offset = 0x%x, size = %lld, filled slots:"
"\n  Timestamp: "
"\n  Virtual Memory Threshold: "
"\n----- ------------------"
"\n---"
"\n; <label>:"
"\n; uselistorder directives\n"
"\n...\n"
"\n.debug_macinfo contents:\n"
"\n"
"\n]\n"
"\n\n"
"\n\r"
"\n\r\t"
"\n\t.linkonce\t"
"\n\t"
"\n<error parsing>\n"
"\n0x%8.8x: "
"\n0x%8.8x"
"\naddress  pcrel length extern type    scattered symbolnum/value\n"
"\t            "
"\t            errsumm "
"\t       category name "
"\t       class methods "
"\t       instanceProperties "
"\t      mmst_reg  "
"\t      mmst_rsrv "
"\t      super_class "
"\t      xmm_reg "
"\t     lr "
"\t     optionalClassMethods "
"\t    control: invalid "
"\t    ds  "
"\t    eax "
"\t    edi "
"\t    esh.count "
"\t    esh.count x86_EXCEPTION_STATE64_COUNT\n"
"\t    esh.flavor "
"\t    esh.flavor x86_EXCEPTION_STATE64\n"
"\t    fpu_cs "
"\t    fpu_ftw "
"\t    fpu_reserved[0] "
"\t    fpu_reserved1 "
"\t    fpu_rsrv3 "
"\t    fpu_rsrv4:\n"
"\t    fpu_stmm0:\n"
"\t    fpu_stmm1:\n"
"\t    fpu_stmm2:\n"
"\t    fpu_stmm3:\n"
"\t    fpu_stmm4:\n"
"\t    fpu_stmm5:\n"
"\t    fpu_stmm6:\n"
"\t    fpu_stmm7:\n"
"\t    fpu_xmm0:\n"
"\t    fpu_xmm1:\n"
"\t    fpu_xmm10:\n"
"\t    fpu_xmm11:\n"
"\t    fpu_xmm12:\n"
"\t    fpu_xmm13:\n"
"\t    fpu_xmm14:\n"
"\t    fpu_xmm15:\n"
"\t    fpu_xmm2:\n"
"\t    fpu_xmm3:\n"
"\t    fpu_xmm4:\n"
"\t    fpu_xmm5:\n"
"\t    fpu_xmm6:\n"
"\t    fpu_xmm7:\n"
"\t    fpu_xmm8:\n"
"\t    fpu_xmm9:\n"
"\t    fsh.flavor "
"\t    fsh.flavor x86_FLOAT_STATE64 "
"\t    instance methods "
"\t    instance_size "
"\t    r0  "
"\t    r12 "
"\t    r4  "
"\t    r8  "
"\t    ss  "
"\t    status: invalid "
"\t    trapno "
"\t    tsh.flavor "
"\t    tsh.flavor x86_THREAD_STATE32 "
"\t    tsh.flavor x86_THREAD_STATE64 "
"\t    x0  "
"\t    x12 "
"\t    x15 "
"\t    x18 "
"\t    x21 "
"\t    x24 "
"\t    x27 "
"\t    x3  "
"\t    x6  "
"\t    x9  "
"\t   cpsr "
"\t   far  "
"\t  optionalInstanceMethods "
"\t %08llx "
"\t.arch_extension\t"
"\t.arch\t"
"\t.ascii\t"
"\t.asciz\t"
"\t.byte "
"\t.byte 0x%02hhx"
"\t.byte 0x%02x #bad opcode\n"
"\t.byte\t"
"\t.cantunwind\n"
"\t.cpu\t"
"\t.cv_fpo_data\t"
"\t.cv_fpo_endproc\n"
"\t.cv_fpo_endprologue\n"
"\t.cv_fpo_proc\t"
"\t.cv_fpo_pushreg\t"
"\t.cv_fpo_setframe\t"
"\t.cv_fpo_stackalloc\t"
"\t.eabi_attribute\t"
"\t.fnend\n"
"\t.fnstart\n"
"\t.fpu\t"
"\t.globl\t"
"\t.handlerdata\n"
"\t.hword\t"
"\t.inst"
"\t.inst\t0x"
"\t.long "
"\t.long 0x%08x "
"\t.long\t"
"\t.long\t0x%08x\n"
"\t.movsp\t"
"\t.object_arch\t"
"\t.pad\t#"
"\t.personality "
"\t.personalityindex "
"\t.quad\t"
"\t.save\t{"
"\t.section\t"
"\t.setfp\t"
"\t.short "
"\t.short\t"
"\t.short\t0x%04x\n"
"\t.space\t"
"\t.subsection\t"
"\t.thumb_set\t"
"\t.tlsdescseq\t"
"\t.unwind_raw "
"\t.vsave\t{"
"\t.weak_reference "
"\t.weak\t"
"\t.word\t"
"\t.xword\t"
"\t.zero\t"
"\t"
"\t("
"\t(remaining category defs entries entends past the end of "
"\t(remaining class defs entries entends past the end of the "
"\t{"
"\t{0}\t{1}"
"\t@ "
"\t@ data in code kind = "
"\t@ KIND_ABS_JUMP_TABLE32\n"
"\t@ KIND_DATA\n"
"\t@ KIND_JUMP_TABLE16\n"
"\t@ KIND_JUMP_TABLE32\n"
"\t@ KIND_JUMP_TABLE8\n"
"\t\n\x0B\x0C\r "
"\t\t         obsolete "
"\t\t       imp "
"\t\t       ivar_count "
"\t\t       method_imp "
"\t\t      isa "
"\t\t      ivar_offset "
"\t\t      list["
"\t\t      method_name "
"\t\t      name "
"\t\t     classMethods "
"\t\t     count "
"\t\t     info "
"\t\t     method_count "
"\t\t     method_types "
"\t\t     name "
"\t\t     pc "
"\t\t     types "
"\t\t    cache "
"\t\t    ivars "
"\t\t   entsize "
"\t\t  class name "
"\t\t  instanceMethods "
"\t\t  methods "
"\t\t  version "
"\t\t objc_method_list extends past end of the section\n"
"\t\t objc_protocol_list_t extends past end of the section\n"
"\t\t remaining ivar's extend past the of the section\n"
"\t\t remaining list entries extend past the of the section\n"
"\t\t remaining method's extend past the of the section\n"
"\t\t.byte\t"
"\t\t.short\t"
"\t\t\t      isa "
"\t\t\t     name "
"\t\t\t     size "
"\t\t\t     type "
"\t\t\t   offset "
"\t\t\t%08llx:  "
"\t\t\talignment "
"\t\t\tattributes "
"\t\t\tivar_name "
"\t\t\tivar_type "
"\t\t\tprotocols "
"\t\t%016llx:  "
"\t\tprotocols "
"\t## "
"\t0x"
"\tAPSR_nzcv, fpscr"
"\tBad offset ("
"\tbfc\t"
"\tbfi\t"
"\tbfxil\t"
"\tcallq\t"
"\tcat_def_cnt "
"\tCategory Definitions\n"
"\tClass Definitions\n"
"\tcls_def_cnt "
"\tdata32"
"\tdefs["
"\tDW_CHILDREN_"
"\tfpexc, "
"\tfpinst, "
"\tfpinst2, "
"\tfpscr, "
"\tfpsid, "
"\tldm"
"\tlock\t"
"\tlr"
"\tMeta Class"
"\tmov\t"
"\tmovk\t"
"\tmovn\t"
"\tmovz\t"
"\tnotrack\t"
"\tpc, lr, "
"\tpc, lr"
"\trefs "
"\trep\t"
"\trepne\t"
"\tsel_ref_cnt "
"\tsp, "
"\tsp!, "
"\tsymtab extends past end of an __OBJC section)\n"
"\ttsb\tcsync"
"\tvalue "
"\x07\x08\t\n\x0B\x0C\r\x01\x02\x03\x04\x05\x06\x0E\x0F\x10\x11\x12\x13\x14\x15\x16\x17\x18\x19\x1A\x1B\x1C\x1D\x1E\x1F"
"\x1B[0m"
"\x1B[1m"
"\x1B[7m"
"\xCE\xFA\xED\xFE"
"\xCF\xFA\xED\xFE"
"\xFE\xED\xFA\xCE"
"\xFE\xED\xFA\xCF"
"&"
"&&"
"&="
"# formal arguments must match # of arguments for function type!"
"# marker"
"#-"
"#-0"
"#"
"##"
"#%.8f"
"#%#016llx"
"#%#llx"
"#0x"
"#0x0"
"#0x1"
"#0x2"
"#0x3"
"#0x4"
"#0x5"
"#0x6"
"#0x7"
"#0x8"
"#0x9"
"#0xa"
"#0xb"
"#0xc"
"#0xd"
"#0xe"
"#1"
"%-10s "
"%-3d "
"%-7u "
"%-7u"
"%-8s %-18s 0x%08llX  %s"
"%-8s"
"%-d "
"%."
"%.*s"
"%.*s\n"
"%.16s"
"%.16s\n"
"%.24s "
"%.2x"
"%"
"%\"type "
"%%"
"%="
"%016llx"
"%02.02hhx "
"%02hhX "
"%02hhx"
"%02x"
"%04hx"
"%08llx"
"%08x "
"%08x %016llx %016llx\n"
"%08x %08llx %08llx\n"
"%08x %08x %08x CIE"
"%08x %08x %08x FDE "
"%08x %1d     %-2d     %1d      %-7d 0         %d\n"
"%08x %1d     %-2d     n/a    %-7d 1         0x%08x\n"
"%08x <End of list>\n"
"%08x"
"%10s/"
"%16.16llx "
"%2.2x "
"%2d"
"%3d %-13s %08llx %016llx %s\n"
"%3d/"
"%3u"
"%3x"
"%5lld"
"%5u "
"%5u 0x%016llx "
"%5u"
"%6lld"
"%6u"
"%7s "
"%8.8x  "
"%8.8x "
"%8lld:"
"%8llx:"
"%a"
"%af"
"%d "
"%d"
"%d/"
"%es:("
"%LaL"
"%lld"
"%llxh"
"%s Bucket[%d] Hash[%d] = 0x%08x Str[%u] = 0x%08x DIE[%d] = 0x%08x is not a valid DIE offset for \"%s\".\n"
"%s list header: length = 0x%8.8x, version = 0x%4.4hx, addr_size = 0x%2.2hhx, seg_size = 0x%2.2hhx, offset_entry_count = 0x%8.8x\n"
"%s table at offset 0x%x has more offset entries (%u) than there is space for"
"%s table at offset 0x%x has too small length (0x%x) to contain a complete header"
"%s table at offset 0x%x has unsupported address size %hhu"
"%s table at offset 0x%x has unsupported segment selector size %hhu"
"%u entries"
"%x"
"`"
"^"
"^(\.[0-9]+|[0-9]+(\.[0-9]*)?)([eE][-+]?[0-9]+)?$"
"^="
"^arm\.neon\.vld([1234]|[234]lane)\.v[a-z0-9]*$"
"^arm\.neon\.vst([1234]|[234]lane)\.v[a-z0-9]*$"
"+"
"+/-"
"++"
"+="
"+0x"
"+64bit-mode,-32bit-mode,-16bit-mode"
"+aes"
"+crc"
"+crypto"
"+dotprod"
"+dsp"
"+fullfp16"
"+help"
"+Inf"
"+nacl-trap"
"+noarm"
"+ras"
"+sha2"
"+thumb-mode,+v4t"
"< EMPTY >\n"
"<"
"<<"
"<<="
"<<bad library ordinal>>"
"<<invalid>>"
"<<none>>"
"<<unknown special ordinal>>"
"<="
"<>"
"<0x%2.2x> "
"<0x%4.4x> "
"<0x%8.8x> "
"<0x%llx> "
"<alt 0x%llx>"
"<badref> = "
"<badref>"
"<compile unit can't be parsed!>\n\n"
"<decoding error>"
"<empty name> "
"<End of list>"
"<imm:"
"<input object files>"
"<instantiation>"
"<invalid dwarf unit>"
"<Invalid operator> "
"<invalid>"
"<MCInst "
"<MCInst #"
"<MCOperand "
"<mem:"
"<no .debug_addr section>"
"<not found>\n"
"<null operand!>"
"<NULL>"
"<placeholder or erroneous Constant>"
"<reg:"
"<skipping contents of bss section at [%04llx, %04llx)>\n"
"<stdin>"
"<temporary!> "
"<type unit can't be parsed!>\n\n"
"<und>"
"<unknown>"
"= "
"= *cannot print option value*\n"
"= *unknown option value*\n"
"="
"=\""
"=<"
"=="
">..."
">"
">="
">>"
">>="
"|"
"|="
"||"
"~"
"$"
"$$"
"$a"
"$d"
"$eax"
"$ebp"
"$ebx"
"$ecx"
"$edi"
"$edx"
"$eip $T0 ^ = $esp $T0 4 + = "
"$eip"
"$esi"
"$esp"
"$M"
"$t"
"$T0 .raSearch = "
"$T0 "
"$x"
"0 (?,?)"
"0.0"
"0.0E+0"
"0.5"
"0"
"0%llxh"
"0%o "
"0123456789_.abcdefghijklmnopqrstuvwxyzABCDEFGHIJKLMNOPQRSTUVWXYZ"
"0123456789"
"0123456789abcdef"
"0123456789ABCDEFabcdef"
"0123456789ABCDEFGHIJKLMNOPQRSTUVWXYZ"
"0x"
"0x%*.*llx, "
"0x%*.*llx"
"0x%0*x"
"0x%016llx "
"0x%016llx"
"0x%016llx\n"
"0x%02x"
"0x%04x"
"0x%08.08x: "
"0x%08llX  "
"0x%08llx "
"0x%08llx"
"0x%08llx\n"
"0x%08x"
"0x%0llx"
"0x%16.16llx %6u %6u"
"0x%16.16llx"
"0x%8.8llx"
"0x%8.8x "
"0x%8.8x: "
"0x%8.8x: \""
"0x%8.8x: \"%s\"\n"
"0x%8.8x: Gap, length = "
"0x%8.8x:"
"0x%8.8x"
"0x%llx"
"0x%x "
"0x%x"
"0x7000001e"
"1-byte data relocations not supported"
"1.0"
"10.0.1"
"16-bit mode (i8086)"
"16bit-mode"
"16byte_literals"
"2-byte"
"2.0"
"2"
"2A"
"2nd level page offset="
"3"
"32 bit reloc applied to a field with a different size"
"32-bit absolute addressing is not supported in 64-bit mode"
"32-bit mode (80386)"
"32-bit X86: Pentium-Pro and above"
"32bit-mode"
"32bit"
"3dnow"
"3dnowa"
"3M"
"4-byte alignment"
"4-byte"
"4"
"4byte_literals"
"4T"
"5T"
"5TE"
"5TEJ"
"6-M"
"6"
"64-bit mode (x86_64)"
"64-bit with cmpxchg16b"
"64-bit X86: EM64T and AMD64"
"64bit-mode"
"64bit"
"6K"
"6KZ"
"6T2"
"7-A"
"7-K"
"7-M"
"7-R"
"7-S"
"7E-M"
"7VE"
"8-A"
"8-byte alignment"
"8-byte data alignment"
"8-byte data and code alignment"
"8-M.Baseline"
"8-M.Mainline"
"8-R"
"8.1-A"
"8.2-A"
"8.3-A"
"8.4-A"
"8byte_literals"
"8msecext"
"A Bundle can only have one Subtarget."
"A cleanupret must exit its cleanup"
"a handler attribute must begin with '@'"
"A single unwind edge may only enter one EH pad"
"a"
"a1,+a2,-a3,..."
"a12"
"a15"
"a17"
"a32"
"a35"
"a5"
"a53"
"A53UnitALU"
"A53UnitB"
"A53UnitDiv"
"A53UnitFPALU"
"A53UnitFPMDS"
"A53UnitLdSt"
"A53UnitMAC"
"a55"
"a57"
"A57UnitB"
"A57UnitI"
"A57UnitL"
"A57UnitM"
"A57UnitS"
"A57UnitV"
"A57UnitW"
"A57UnitX"
"a7"
"a72"
"a73"
"a75"
"a8"
"a9-erratum-754319"
"a9-erratum-754320"
"a9"
"A9UnitAGU"
"A9UnitALU"
"A9UnitB"
"A9UnitFP"
"A9UnitLS"
"A9UnitMul"
"aad"
"aam"
"AAPCS VFP"
"AAPCS"
"AArch64 (big endian)"
"AArch64 (little endian)"
"aarch64_be"
"aarch64-neon-syntax"
"aarch64.thread.pointer"
"aarch64"
"Abbrev record with no operands"
"Abbrev table for offset: 0x%8.8llx\n"
"Abbrev"
"Abbreviation 0x"
"Abbreviation code not found in 'debug_abbrev' class for code: "
"Abbreviation declaration contains multiple "
"Abbreviation starts with an Array or a Blob"
"Abbreviations table size"
"Abbreviations"
"abcdefghijklmnopqrstuvwxyz"
"ABCDEFGHIJKLMNOPQRSTUVWXYZabcdefghijklmnopqrstuvwxyz"
"ABCDEFGHIJKLMNOPQRSTUVWXYZabcdefghijklmnopqrstuvwxyz0123456789!\"#$%&'()*+,-./:;<=>?@[\]^_`{|}~ "
"ABCDEFGHIJKLMNOPQRSTUVWXYZabcdefghijklmnopqrstuvwxyz0123456789!\"#$%&'()*+,-./:;<=>?@[\]^_`{|}~"
"abcdefghijklmnopqrstuvwxyzABCDEFGHIJKLMNOPQRSTUVWXYZ0123456789._"
"ABCDEFGHIJKLMNOPQRSTUVWXYZabcdefghijklmnopqrstuvwxyz0123456789"
"ABI alignment specification must be >0 for non-aggregate types"
"ABS_JUMP_TABLE32"
"abs.cond"
"abs"
"ABS8"
"absolute"
"ABSOLUTE\n"
"Access bit-width not the same as description bit-width"
"Access size field must be a constant"
"Access tag metadata must have either 4 or 5 operands"
"Access tag nodes must have the number of operands that is a multiple of 3!"
"Access type node must be a valid scalar type"
"Accuracy"
"ACK"
"aclass"
"acq_rel"
"acquire semantics dropped since destination is zero"
"acquire-release"
"acquire"
"ACTLR_EL1"
"ACTLR_EL2"
"ACTLR_EL3"
"add"
"add\t$\x01, $\x02, $\x03"
"ADDEND  "
"addend = 0x%06x\n"
"addr field of section "
"addr field plus size of section "
"Addr idx "
"Addr Section: length = 0x%8.8x, version = 0x%4.4hx, addr_size = 0x%2.2hhx, seg_size = 0x%2.2hhx\n"
"addr_sec"
"addr"
"address            index"
"Address            Line   Column File   ISA Discriminator Flags\n"
"address    index"
"address "
"address += "
"address discriminator isn't a constant integer or expr"
"Address Range Header: length = 0x%8.8x, version = 0x%4.4x, "
"Address space 0 can never be non-integral"
"address"
"Addrs: ["
"addrspace("
"AddrSpaceCast must be between different address spaces"
"AddrSpaceCast result must be a pointer"
"AddrSpaceCast source must be a pointer"
"AddrSpaceCast vector pointer number of elements mismatch"
"addrspacecast"
"adds\t$\x01, $\x02, $\x03"
"ADR/ADRP relocations must be GOT relative"
"AdrpAdd\n"
"AdrpAddLdr\n"
"AdrpAddStr\n"
"AdrpAdrp\n"
"AdrpLdr\n"
"AdrpLdrGot\n"
"AdrpLdrGotLdr\n"
"AdrpLdrGotStr\n"
"adx"
"AEABI Conformant"
"AEABI Non-Conformant"
"aeabi"
"aes"
"AFSR0_EL1"
"AFSR0_EL12"
"AFSR0_EL2"
"AFSR0_EL3"
"AFSR1_EL1"
"AFSR1_EL12"
"AFSR1_EL2"
"AFSR1_EL3"
"Aggressive Size"
"Aggressive Speed"
"aggressive-fma"
"AIDR_EL1"
"air64"
"aix"
"al"
"alert"
"alias "
"Alias and aliasee types don't match"
"Alias and aliasee types should match!"
"Alias cannot point to an interposable alias"
"Alias for --all-headers"
"Alias for --archive-headers"
"Alias for --demangle"
"Alias for --disassemble-all"
"Alias for --disassemble"
"Alias for --dynamic-reloc"
"Alias for --file-headers"
"Alias for --macho"
"Alias for --private-headers"
"Alias for --section-headers"
"Alias for --section"
"Alias for --unwind-info"
"Alias for -line-numbers"
"Alias for -source"
"Alias must point to a definition"
"Alias should have private, internal, linkonce, weak, linkonce_odr, weak_odr, or external linkage!"
"Aliasee cannot be NULL!"
"Aliasee should be either GlobalValue or ConstantExpr"
"Aliases cannot form a cycle"
"align (2^"
"align 2**%u\n"
"align applies only to load instructions, use attributes for calls or invokes"
"align applies only to pointer types"
"align metadata value must be a power of 2!"
"align metadata value must be an i64!"
"align takes one operand!"
"align"
"alignment directive can never be satisfied in this many bytes, ignoring maximum bytes expression"
"alignment is larger that implementation defined limit"
"alignment is limited to 32-bytes"
"alignment must be a power of 2"
"alignment not supported on this target"
"alignment of arg 0 of memory intrinsic must be 0 or a power of 2"
"alignment of arg 1 of memory intrinsic must be 0 or a power of 2"
"Alignment value is too large"
"alignof ("
"alignstack "
"alignstack"
"all .cv_loc directives for a function must be in the same section"
"All GEP indices should be of integer type"
"all indices passed to llvm.localrecover must be less than the number of arguments passed ot llvm.localescape in the parent function"
"All llvm.experimental.deoptimize declarations must have the same calling convention"
"All nodes should be resolved!"
"all-headers"
"all"
"ALLE1"
"ALLE1IS"
"ALLE1OS"
"ALLE2"
"ALLE2IS"
"ALLE2OS"
"ALLE3"
"ALLE3IS"
"ALLE3OS"
"Alloca array size must have integer type"
"alloca"
"Allocation failed"
"Allocation instruction pointer not in the stack address space!"
"allocator"
"Allow unaligned memory operands with SSE instructions"
"alnum"
"alpha"
"alt indirect string, offset: 0x%llx"
"alternate-sextload-cvt-f32-pattern"
"AMAIR_EL1"
"AMAIR_EL12"
"AMAIR_EL2"
"AMAIR_EL3"
"AMCFGR_EL0"
"AMCGCR_EL0"
"AMCNTENCLR0_EL0"
"AMCNTENCLR1_EL0"
"AMCNTENSET0_EL0"
"AMCNTENSET1_EL0"
"AMCR_EL0"
"amdfam10"
"amdgcn"
"amdgpu_cs"
"amdgpu_es"
"amdgpu_gs"
"amdgpu_hs"
"amdgpu_kernel"
"amdgpu_ls"
"amdgpu_ps"
"amdgpu_vs"
"amdhsa"
"amdil"
"amdil64"
"amdpal"
"AMEVCNTR00_EL0"
"AMEVCNTR01_EL0"
"AMEVCNTR02_EL0"
"AMEVCNTR03_EL0"
"AMEVCNTR10_EL0"
"AMEVCNTR11_EL0"
"AMEVCNTR110_EL0"
"AMEVCNTR111_EL0"
"AMEVCNTR112_EL0"
"AMEVCNTR113_EL0"
"AMEVCNTR114_EL0"
"AMEVCNTR115_EL0"
"AMEVCNTR12_EL0"
"AMEVCNTR13_EL0"
"AMEVCNTR14_EL0"
"AMEVCNTR15_EL0"
"AMEVCNTR16_EL0"
"AMEVCNTR17_EL0"
"AMEVCNTR18_EL0"
"AMEVCNTR19_EL0"
"AMEVTYPER00_EL0"
"AMEVTYPER01_EL0"
"AMEVTYPER02_EL0"
"AMEVTYPER03_EL0"
"AMEVTYPER10_EL0"
"AMEVTYPER11_EL0"
"AMEVTYPER110_EL0"
"AMEVTYPER111_EL0"
"AMEVTYPER112_EL0"
"AMEVTYPER113_EL0"
"AMEVTYPER114_EL0"
"AMEVTYPER115_EL0"
"AMEVTYPER12_EL0"
"AMEVTYPER13_EL0"
"AMEVTYPER14_EL0"
"AMEVTYPER15_EL0"
"AMEVTYPER16_EL0"
"AMEVTYPER17_EL0"
"AMEVTYPER18_EL0"
"AMEVTYPER19_EL0"
"ampersand"
"AMUSERENR_EL0"
"An I/O error occurred on the file system."
"An unspecified error has occurred."
"ananas"
"and"
"and\t$\x01, $\x02, $\x03"
"and\t$\xFF\x01\t, $\xFF\x01\t, $\xFF\x03\n"
"and\t$\xFF\x01\x06, $\xFF\x01\x06, $\xFF\x03\x08"
"and\t$\xFF\x01\x0B, $\xFF\x01\x0B, $\xFF\x03\x04"
"ANDROID_REL"
"ANDROID_RELA"
"ANDROID_RELASZ"
"ANDROID_RELR"
"ANDROID_RELRENT"
"ANDROID_RELRSZ"
"ANDROID_RELSZ"
"android"
"androideabi"
"ands\t$\x01, $\x02, $\x03"
"anonymous macro"
"anonymous module"
"anyregcc"
"APDAKeyHi_EL1"
"APDAKeyLo_EL1"
"APDBKeyHi_EL1"
"APDBKeyLo_EL1"
"APGAKeyHi_EL1"
"APGAKeyLo_EL1"
"APIAKeyHi_EL1"
"APIAKeyLo_EL1"
"APIBKeyHi_EL1"
"APIBKeyLo_EL1"
"apostrophe"
"APP"
"APPLE_1_"
"apple_names"
"apple_namespac"
"apple_types"
"apple"
"Application"
"applying IT instruction to more than one subsequent instruction is deprecated"
"APSR_"
"apsr_g"
"apsr_nzcvq"
"apsr_nzcvqg"
"apsr"
"arc"
"arch-name"
"arch"
"architecture "
"architecture: "
"architecture(s) from a Mach-O file to dump"
"Archive : "
"archive header truncated before the name field for archive member header at offset "
"archive-headers"
"archive-member-offsets"
"arg"
"Args"
"Argument value does not match function argument type!"
"Argument value type does not match pointer operand type!"
"Arguments"
"arith-bcc-fusion"
"arith-cbz-fusion"
"arm "
"ARM (big endian)"
"ARM v4"
"ARM v4T"
"ARM v5T"
"ARM v5TE"
"ARM v5TEJ"
"ARM v6-M"
"ARM v6"
"ARM v6K"
"ARM v6KZ"
"ARM v6S-M"
"ARM v6T2"
"ARM v7"
"ARM v7E-M"
"ARM v8"
"arm_aapcs_vfpcc"
"arm_aapcscc"
"arm_apcscc"
"ARM_RELOC_BR24"
"ARM_RELOC_HALF_SECTDIFF"
"ARM_RELOC_HALF"
"ARM_RELOC_LOCAL_SECTDIFF"
"ARM_RELOC_PAIR"
"ARM_RELOC_PB_LA_PTR"
"ARM_RELOC_SECTDIFF"
"ARM_RELOC_VANILLA"
"ARM_THUMB_32BIT_BRANCH"
"ARM_THUMB_RELOC_BR22"
"arm.neon.vclz"
"arm.neon.vcnt"
"arm"
"arm1020e"
"arm1020t"
"arm1022e"
"arm10e"
"arm10tdmi"
"arm1136j-s"
"arm1136jf-s"
"arm1156t2-s"
"arm1156t2f-s"
"arm1176j-s"
"arm1176jz-s"
"arm1176jzf-s"
"ARM64 (little endian)"
"arm64_32-apple-darwin"
"arm64_32"
"ARM64_RELOC_ADDEND"
"ARM64_RELOC_AUTHENTICATED_POINTER"
"ARM64_RELOC_BRANCH26"
"ARM64_RELOC_GOT_LOAD_PAGE21"
"ARM64_RELOC_GOT_LOAD_PAGEOFF12"
"ARM64_RELOC_PAGE21"
"ARM64_RELOC_PAGEOFF12"
"ARM64_RELOC_POINTER_TO_GOT"
"ARM64_RELOC_SUBTRACTOR"
"ARM64_RELOC_TLVP_LOAD_PAGE21"
"ARM64_RELOC_TLVP_LOAD_PAGEOFF12"
"ARM64_RELOC_UNSIGNED"
"arm64-apple-darwin"
"arm64"
"arm64e-apple-darwin"
"arm64e"
"arm710t"
"arm720t"
"arm7tdmi-s"
"arm7tdmi"
"arm8"
"arm810"
"arm9"
"arm920"
"arm920t"
"arm922t"
"arm926ej-s"
"arm940t"
"arm946e-s"
"arm966e-s"
"arm968e-s"
"arm9e"
"arm9tdmi"
"armeb"
"ARMv2 architecture"
"armv2"
"ARMv2a architecture"
"armv2a"
"ARMv3 architecture"
"armv3"
"ARMv3m architecture"
"armv3m"
"ARMv4 architecture"
"armv4"
"ARMv4t architecture"
"armv4t-apple-darwin"
"armv4t"
"armv5e-apple-darwin"
"armv5e"
"ARMv5t architecture"
"armv5t"
"ARMv5te architecture"
"armv5te"
"ARMv5tej architecture"
"armv5tej"
"ARMv6 architecture"
"armv6-apple-darwin"
"armv6-m"
"armv6"
"armv6j"
"ARMv6k architecture"
"armv6k"
"ARMv6kz architecture"
"armv6kz"
"ARMv6m architecture"
"armv6m-apple-darwin"
"armv6m"
"armv6s-m"
"ARMv6sm architecture"
"ARMv6t2 architecture"
"armv6t2"
"armv7-a"
"armv7-apple-darwin"
"armv7-m"
"armv7-r"
"armv7"
"ARMv7a architecture"
"armv7e-m"
"ARMv7em architecture"
"armv7em"
"armv7k-apple-darwin"
"armv7k"
"ARMv7m architecture"
"armv7m"
"ARMv7r architecture"
"armv7s-apple-darwin"
"armv7s"
"ARMv7ve architecture"
"armv7ve"
"ARMv8-a FP-D16"
"ARMv8-a FP"
"ARMv8-a NEON"
"armv8-a"
"armv8-m.base"
"armv8-m.main"
"armv8-r"
"ARMv8.1-a NEON"
"armv8.1-a"
"armv8.2-a"
"armv8.3-a"
"armv8.4-a"
"ARMv81a architecture"
"ARMv82a architecture"
"ARMv83a architecture"
"ARMv84a architecture"
"ARMv8a architecture"
"ARMv8mBaseline architecture"
"ARMv8mMainline architecture"
"ARMv8r architecture"
"Array element type can't be an Array or a Blob"
"Array element type has to be an encoding of a type"
"Array op not second to last"
"As secure log file name (initialized from AS_SECURE_LOG_FILE env variable)"
"AS_SECURE_LOG_FILE"
"as-secure-log-file-name"
"ashr"
"ASIDE1"
"ASIDE1IS"
"ASIDE1OS"
"asm "
"asm-macro-max-nesting-depth"
"asr $\x01, $\x02, $\x03"
"asr"
"assembler local symbol '"
"assoc %d comdat %d\n"
"associative"
"asterisk"
"at BIND_OPCODE_DO_BIND (incorrect ordinal table size, number of BIND_OPCODE_DO_BIND opcodes exceed the count in previous BIND_SUBOPCODE_THREADED_SET_BIND_ORDINAL_TABLE_SIZE_ULEB) at BIND_OPCODE_DO_BIND at: 0x"
"at BIND_SUBOPCODE_THREADED_APPLY (incorrect ordinal table size, count of previous BIND_OPCODE_DO_BIND opcodes don't match count in previous BIND_SUBOPCODE_THREADED_SET_BIND_ORDINAL_TABLE_SIZE_ULEB at BIND_SUBOPCODE_THREADED_APPLY at: 0x"
"at offset "
"at\t"
"athlon-4"
"athlon-fx"
"athlon-mp"
"athlon-tbird"
"athlon-xp"
"athlon"
"athlon64-sse3"
"athlon64"
"Atom "
"atom"
"Atom[%d]: "
"Atomic load must specify explicit alignment"
"atomic load operand must have integer, pointer, or floating point type!"
"atomic memory access' operand must have a power-of-two size"
"atomic memory access' size must be byte-sized"
"Atomic store must specify explicit alignment"
"atomic store operand must have integer, pointer, or floating point type!"
"atomicrmw instructions cannot be unordered."
"atomicrmw instructions must be atomic."
"atomicrmw operand must have integer type!"
"atomicrmw"
"AtomPort0"
"AtomPort01"
"AtomPort1"
"Atoms"
"att"
"Attribute '"
"Attribute 'builtin' can only be applied to a callsite."
"Attribute 'byval' only applies to parameters with pointer type!"
"Attribute 'jumptable' requires 'unnamed_addr'"
"Attribute 'optnone' requires 'noinline'!"
"Attribute 'sret' cannot be used for vararg call arguments!"
"Attribute 'sret' is not on first or second parameter!"
"Attribute 'swifterror' only applies to parameters with pointer to pointer type!"
"Attribute 'swifterror' only applies to parameters with pointer type!"
"Attribute after last parameter!"
"Attribute"
"Attributes 'byval' and 'inalloca' do not support unsized types!"
"Attributes 'byval', 'inalloca', 'inreg', 'nest', and 'sret' are incompatible!"
"Attributes 'byval', 'inalloca', 'nest', 'sret', 'nocapture', 'returned', 'swiftself', and 'swifterror' do not apply to return values!"
"Attributes 'inalloca and readonly' are incompatible!"
"Attributes 'minsize and optnone' are incompatible!"
"Attributes 'noinline and alwaysinline' are incompatible!"
"Attributes 'optsize and optnone' are incompatible!"
"Attributes 'readnone and inaccessiblemem_or_argmemonly' are incompatible!"
"Attributes 'readnone and inaccessiblememonly' are incompatible!"
"Attributes 'readnone and readonly' are incompatible!"
"Attributes 'readnone and writeonly' are incompatible!"
"Attributes 'readonly and writeonly' are incompatible!"
"Attributes 'sret and returned' are incompatible!"
"Attributes 'zeroext and signext' are incompatible!"
"attributes"
"Augmentation: '"
"Auth relocation can't reference two symbols"
"auto"
"AUX "
"AUX Unknown\n"
"AUXILIARY"
"Available CPUs for this target:\n\n"
"Available features for this target:\n\n"
"Avoid CPSR partial update for OOO execution"
"Avoid deprecated register-shifted reg operations"
"Avoid movs instructions with shifter operand"
"avoid-movs-shop"
"avoid-partial-cpsr"
"avoid-regsoreg"
"avr_intrcc "
"avr_signalcc "
"avr"
"avx.blend.p"
"avx.dp.ps.256"
"avx.storeu."
"avx.vperm2f128."
"avx"
"avx2.movntdqa"
"avx2.mpsadbw"
"avx2.pblendd."
"avx2.pbroadcast"
"avx2.pmovsx"
"avx2.pmovzx"
"avx2.pmulu.dq"
"avx2.psll.dq.bs"
"avx2.psrl.dq.bs"
"avx2.vbroadcast"
"avx2.vbroadcasti128"
"avx2.vperm2i128"
"avx2"
"avx512.cvtmask2"
"avx512.kand.w"
"avx512.kandn.w"
"avx512.knot.w"
"avx512.kunpck"
"avx512.kxnor.w"
"avx512.kxor.w"
"avx512.mask.broadcast.s"
"avx512.mask.broadcastf"
"avx512.mask.broadcasti"
"avx512.mask.compress.store."
"avx512.mask.cvtdq2pd."
"avx512.mask.cvttpd2dq.256"
"avx512.mask.cvttps2dq.128"
"avx512.mask.cvttps2dq.256"
"avx512.mask.cvtudq2pd."
"avx512.mask.cvtudq2ps.128"
"avx512.mask.cvtudq2ps.256"
"avx512.mask.cvtuqq2pd.128"
"avx512.mask.cvtuqq2pd.256"
"avx512.mask.dbpsadbw."
"avx512.mask.fpclass.p"
"avx512.mask.movddup"
"avx512.mask.movshdup."
"avx512.mask.or."
"avx512.mask.packssdw."
"avx512.mask.packsswb."
"avx512.mask.packusdw."
"avx512.mask.packuswb."
"avx512.mask.pbroadcast"
"avx512.mask.pcmpeq."
"avx512.mask.pcmpgt."
"avx512.mask.pmaddubs.w."
"avx512.mask.pmaddw.d."
"avx512.mask.pmul.hr.sw."
"avx512.mask.pmulhu.w."
"avx512.mask.pmulu.dq."
"avx512.mask.pshufh.w."
"avx512.mask.pshufl.w."
"avx512.mask.pternlog."
"avx512.mask.punpckh"
"avx512.mask.punpckl"
"avx512.mask.store.p"
"avx512.mask.storeu."
"avx512.mask.unpckh."
"avx512.mask.unpckl."
"avx512.mask.valign."
"avx512.mask.vfmadd."
"avx512.mask.vfmaddsub."
"avx512.mask.vfmaddsub.p"
"avx512.mask.vfnmadd.p"
"avx512.mask.vfnmsub.p"
"avx512.mask.vpdpbusd."
"avx512.mask.vpdpbusds."
"avx512.mask.vpdpwssd."
"avx512.mask.vpdpwssds."
"avx512.mask.vpermi2var."
"avx512.mask.vpermil.p"
"avx512.mask.vpermilvar."
"avx512.mask.vpermt2var."
"avx512.mask.vpshld."
"avx512.mask.vpshrd."
"avx512.mask3.vfmadd.p"
"avx512.mask3.vfmadd.s"
"avx512.mask3.vfmaddsub."
"avx512.mask3.vfmsub.p"
"avx512.mask3.vfmsub.s"
"avx512.mask3.vfmsubadd."
"avx512.mask3.vfnmsub."
"avx512.mask3.vfnmsub.p"
"avx512.mask3.vfnmsub.s"
"avx512.maskz.pternlog."
"avx512.maskz.vfmadd.p"
"avx512.maskz.vfmadd.s"
"avx512.maskz.vfmaddsub."
"avx512.maskz.vpdpbusd."
"avx512.maskz.vpdpbusds."
"avx512.maskz.vpdpwssd."
"avx512.maskz.vpdpwssds."
"avx512.maskz.vpmadd52"
"avx512.movntdqa"
"avx512.pmulu.dq.512"
"avx512.psll.dq"
"avx512.psrl.dq"
"avx512.ptestm"
"avx512.ptestnm"
"avx512.storent."
"avx512.vbroadcast.s"
"avx512bitalg"
"avx512bw"
"avx512cd"
"avx512dq"
"avx512er"
"avx512f"
"avx512ifma"
"avx512pf"
"avx512vbmi"
"avx512vbmi2"
"avx512vl"
"avx512vnni"
"avx512vpopcntdq"
"b"
"b\t"
"backslash"
"backspace"
"bad bind info (bad opcode value 0x"
"bad bind info (for BIND_SUBOPCODE_THREADED_APPLY for opcode at: 0x"
"bad bind sub-obcode of BIND_OPCODE_THREADED (bad sub-opcode value 0x"
"bad class ref"
"bad count and skip, too large"
"bad library ordinal: "
"bad magic number"
"bad n_value: "
"bad rebase info (bad opcode value 0x"
"Bad relocation data index"
"bad relocation fixup type"
"Bad relocation function index"
"Bad relocation global index"
"Bad relocation offset"
"Bad relocation section index"
"Bad relocation type index"
"Bad relocation type: "
"bad section index: "
"Bad section type"
"bad segIndex (too large)"
"bad segOffset, too large"
"bad string index: "
"bad string table index: "
"Bad version number"
"Bad/duplicate COMDAT name "
"Badly formed extended line op (length 0)\n"
"balance mix of odd and even D-registers for fp multiply(-accumulate) ops"
"balance-fp-ops"
"barcelona"
"Bare Platform"
"base function offset="
"Base nodes must have at least two operands"
"basepri_max"
"basepri_ns"
"basepri"
"baseType"
"Basic Block does not have terminator!"
"Basic Block in function '"
"basic_block"
"basic_iostream"
"basic_istream"
"basic_ostream"
"basic_string"
"bdver1"
"bdver2"
"bdver3"
"bdver4"
"be"
"BEL"
"Best Accuracy"
"Best Debugging"
"bic\t$\x01, $\x02, $\x03"
"bics\t$\x01, $\x02, $\x03"
"Bind table:\n"
"BIND_NOW"
"bind_off field of "
"bind_off field plus bind_size field of "
"BIND_OPCODE_DO_BIND_ADD_ADDR_IMM_SCALED not allowed in lazy bind table for opcode at: 0x"
"BIND_OPCODE_DO_BIND_ADD_ADDR_ULEB not allowed in lazy bind table for opcode at: 0x"
"BIND_OPCODE_DO_BIND_ULEB_TIMES_SKIPPING_ULEB not allowed in lazy bind table for opcode at: 0x"
"BIND_OPCODE_SET_DYLIB_ORDINAL_IMM not allowed in weak bind table for opcode at: 0x"
"BIND_OPCODE_SET_DYLIB_ORDINAL_ULEB not allowed in weak bind table for opcode at: 0x"
"BIND_OPCODE_SET_DYLIB_SPECIAL_IMM not allowed in weak bind table for opcode at: 0x"
"bind"
"bitcast following musttail call must use the call"
"bitcast"
"Bitwidth between the offsets and struct type entries must match"
"Bitwidth for integer type out of range"
"blank"
"Block containg CatchPadInst must be jumped to only by its catchswitch."
"Block containing LandingPadInst must be jumped to only by the unwind edge of an invoke."
"blockaddress may not be used with the entry block!"
"blockaddress("
"BlockByRef variable without complex expression"
"bmi"
"bmi2"
"Bogus funclet pad use"
"bonnell"
"bool"
"Both operands to a binary operator are not of the same type!"
"Both operands to FCmp instruction are not of the same type!"
"Both operands to ICmp instruction are not of the same type!"
"both values to select must have same type"
"bpf"
"bpfeb"
"bpfel"
"br"
"BR24    "
"BR26    "
"braces not balanced"
"brackets ([ ]) not balanced"
"brackets expression not supported on this target"
"BRANCH  "
"Branch condition is not 'i1' type!"
"bridgeos"
"broadwell"
"Broken module found, compilation aborted!"
"BS"
"BSS"
"btver1"
"btver2"
"Bucket "
"Bucket {0} of Name Index @ {1:x} contains invalid value {2}. Valid range is [0, {3}].\n"
"Bucket count"
"Bucket[%d] has invalid hash index: %u.\n"
"BWDivider"
"BWFPDivider"
"BWPort0"
"BWPort01"
"BWPort015"
"BWPort0156"
"BWPort04"
"BWPort05"
"BWPort056"
"BWPort06"
"BWPort1"
"BWPort15"
"BWPort16"
"BWPort2"
"BWPort23"
"BWPort237"
"BWPort3"
"BWPort4"
"BWPort5"
"BWPort56"
"BWPort6"
"BWPort7"
"BWPortAny"
"byte   "
"byte for count of childern in export trie data at node: 0x"
"byte ptr "
"c"
"c\""
"c3-2"
"c3"
"Cache Line Write Back"
"Call parameter type does not match function signature!"
"Call site entry nested within inlined subroutine:"
"Call site entry not nested within a valid subprogram:"
"call_hi"
"call_lo"
"call"
"Called function is not pointer to function type!"
"Called function is not the same type as the call!"
"Called function must be a pointer!"
"Called function requires more parameters than were provided!"
"Callee is not a pointer type"
"Callee is not a pointer"
"Callee is not of pointer to function type"
"Calling convention does not allow sret"
"Calling convention does not support varargs or perfect forwarding!"
"Calling convention requires void return type"
"calls to experimental_deoptimize must be followed by a return of the value computed by experimental_deoptimize"
"calls to experimental_deoptimize must be followed by a return"
"Callsite was not defined with variable arguments!"
"can not encode offset '0x"
"Can specify at most "
"Can't create temporary xar archive "
"Can't find -dis-symname: "
"can't find target: "
"Can't lazyload MD"
"Can't obtain an xar iterator for xar archive "
"can't open secure log file: "
"Can't print indirect symbols for ("
"CAN"
"cannonlake"
"Cannot allocate unsized type"
"Cannot encode high byte register in REX-prefixed instruction"
"Cannot evaluate subsection number"
"Cannot find option named '"
"cannot guarantee tail call due to mismatched ABI impacting function attributes"
"cannot guarantee tail call due to mismatched calling conv"
"cannot guarantee tail call due to mismatched parameter counts"
"cannot guarantee tail call due to mismatched parameter types"
"cannot guarantee tail call due to mismatched return types"
"cannot guarantee tail call due to mismatched varargs"
"cannot have column info without line info"
"Cannot have multiple 'sret' parameters!"
"Cannot have multiple 'swifterror' parameters!"
"Cannot have multiple 'swiftself' parameters!"
"Cannot initialize MC for non-Windows COFF object files."
"Cannot initialize MC for unknown object file format."
"Cannot invoke an intrinsic other than donothing, patchpoint, statepoint, coro_resume or coro_destroy"
"Cannot load/store from pointer"
"cannot make section associative with .linkonce"
"cannot mix positional and keyword arguments"
"Cannot represent this expression"
"Cannot specify more than one option with cl::ConsumeAfter!"
"Cannot take the address of an inline asm!"
"Cannot take the address of an intrinsic!"
"cannot use musttail call with inline asm"
"carriage-return"
"cast"
"Catch operand does not have pointer type!"
"catchpad"
"CatchPadInst needs to be directly nested in a CatchSwitchInst."
"CatchPadInst needs to be in a function with a personality."
"CatchPadInst not the first non-PHI instruction in the block."
"catchret"
"CatchReturnInst needs to be provided a CatchPad"
"Catchswitch cannot unwind to one of its catchpads"
"catchswitch"
"CatchSwitchInst cannot have empty handler list"
"CatchSwitchInst handlers must be catchpads"
"CatchSwitchInst has an invalid parent."
"CatchSwitchInst must unwind to an EH block which is not a landingpad."
"CatchSwitchInst needs to be in a function with a personality."
"CatchSwitchInst not the first non-PHI instruction in the block."
"category"
"Cavium ThunderX processors"
"Cavium ThunderX2 processors"
"cc"
"CCSIDR_EL1"
"CCSIDR2_EL1"
"cfi"
"Chained unwind areas can't have handlers!"
"change section name to \""
"char"
"char16_t"
"char32_t"
"characters in AccessMode field in archive header are not all decimal numbers: '"
"characters in GID field in archive header are not all decimal numbers: '"
"characters in size field in archive header are not all decimal numbers: '"
"characters in UID field in archive header are not all decimal numbers: '"
"cheap-predicable-cpsr"
"Check for VLDn unaligned access"
"checksum_offset"
"checksum"
"checksumkind: "
"child node offset "
"Choose style of code to emit from X86 backend:"
"Choose style of NEON code to emit from AArch64 backend:"
"cie=%08x pc=%08x...%08x\n"
"cinc $\x01, $\x02, $\xFF\x04\x14"
"cinv $\x01, $\x02, $\xFF\x04\x14"
"circumflex-accent"
"circumflex"
"CISW"
"CIVAC"
"cl::alias must have an cl::aliasopt(option) specified!"
"cl::alias must have argument name specified!"
"cl::alias must only have one cl::aliasopt(...) specified!"
"cl::location(x) specified more than once!"
"clang.arc.retainAutoreleasedReturnValueMarker"
"clangast"
"class refs"
"class"
"class/union requires a filename"
"Classic"
"Clause is neither catch nor filter!"
"cldemote"
"cleanuppad"
"CleanupPadInst has an invalid parent."
"CleanupPadInst needs to be in a function with a personality."
"CleanupPadInst not the first non-PHI instruction in the block."
"cleanupret"
"CleanupReturnInst must unwind to an EH block which is not a landingpad."
"CleanupReturnInst needs to be provided a CleanupPad"
"clflushopt"
"CLIDR_EL1"
"client"
"cloudabi"
"clrex"
"clwb"
"clzero"
"cmn\t$\x02, $\x03"
"cmn\t$\x02, $\x03$\xFF\x04\x02"
"cmn\t$\x02, $\x03$\xFF\x04\x03"
"cmn\t$\x02, $\xFF\x03\x01"
"cmov"
"cmp\t$\x02, $\x03"
"cmp\t$\x02, $\x03$\xFF\x04\x02"
"cmp\t$\x02, $\x03$\xFF\x04\x03"
"cmp\t$\x02, $\xFF\x03\x01"
"cmpxchg failure ordering cannot include release semantics"
"cmpxchg instructions cannot be unordered."
"cmpxchg instructions failure argument shall be no stronger than the success argument"
"cmpxchg instructions must be atomic."
"cmpxchg operand must have integer or pointer type"
"cmpxchg"
"cneg $\x01, $\x02, $\xFF\x04\x14"
"cnk"
"cnmips"
"cntb\t$\x01, $\xFF\x02\x0E"
"cntb\t$\x01"
"cntd\t$\x01, $\xFF\x02\x0E"
"cntd\t$\x01"
"CNTFRQ_EL0"
"cnth\t$\x01, $\xFF\x02\x0E"
"cnth\t$\x01"
"CNTHCTL_EL2"
"CNTHP_CTL_EL2"
"CNTHP_CVAL_EL2"
"CNTHP_TVAL_EL2"
"CNTHPS_CTL_EL2"
"CNTHPS_CVAL_EL2"
"CNTHPS_TVAL_EL2"
"CNTHV_CTL_EL2"
"CNTHV_CVAL_EL2"
"CNTHV_TVAL_EL2"
"CNTHVS_CTL_EL2"
"CNTHVS_CVAL_EL2"
"CNTHVS_TVAL_EL2"
"CNTKCTL_EL1"
"CNTKCTL_EL12"
"CNTP_CTL_EL0"
"CNTP_CTL_EL02"
"CNTP_CVAL_EL0"
"CNTP_CVAL_EL02"
"CNTP_TVAL_EL0"
"CNTP_TVAL_EL02"
"CNTPCT_EL0"
"CNTPS_CTL_EL1"
"CNTPS_CVAL_EL1"
"CNTPS_TVAL_EL1"
"cntrl"
"CNTV_CTL_EL0"
"CNTV_CTL_EL02"
"CNTV_CVAL_EL0"
"CNTV_CVAL_EL02"
"CNTV_TVAL_EL0"
"CNTV_TVAL_EL02"
"CNTVCT_EL0"
"CNTVOFF_EL2"
"cntw\t$\x01, $\xFF\x02\x0E"
"cntw\t$\x01"
"coalesced"
"Code section ended prematurely"
"code signature data"
"code signing RDs data"
"CODE"
"code16"
"COFF-<unknown arch>"
"COFF-ARM"
"COFF-ARM64"
"COFF-i386"
"COFF-x86-64"
"coff"
"coldcc"
"colon"
"Color Options"
"color"
"colors"
"column position less than zero in '.cv_loc' directive"
"column position less than zero in '.loc' directive"
"column"
"COMDAT data index out of range"
"COMDAT function index out of range"
"comdat global value has private linkage"
"comma"
"command "
"commercial-at"
"compatibility version "
"Compilation Unit offsets"
"Compilation unit root DIE is not a unit DIE: "
"Compilation unit type ("
"Compilation unit without DIE.\n"
"compile units must be distinct"
"conditional branch requires assembler-local label. '"
"configMacros"
"conflicting debug info for argument"
"Conflicting METADATA_KIND records"
"conflicting section flags 'b' and 'd'."
"const_cast"
"constant "
"constant length must be a multiple of the element size in the element-wise atomic memory intrinsic"
"constant value truncated (limited to 32-bit)"
"constant"
"consume"
"containingType"
"contains LC_DYSYMTAB load command without a LC_SYMTAB load command"
"contains two of the same architecture (cputype ("
"contains zero architecture types"
"Contents of __compact_unwind section:\n"
"Contents of __unwind_info section:\n"
"Contents of ("
"Contents of section "
"Contents"
"CONTEXTIDR_EL1"
"CONTEXTIDR_EL12"
"CONTEXTIDR_EL2"
"contiki"
"Contribution size = "
"control_ns"
"control"
"Convert immediates and instructions to their negated or complemented equivalent when the immediate does not fit in the encoding."
"Convert VMOVSR, VMOVRS, VMOVS to NEON"
"core-avx-i"
"core-avx2"
"core2"
"coreclr"
"corei7-avx"
"corei7"
"corrupted compressed section header"
"Corrupted Metadata block"
"corrupted uncompressed section size"
"Cortex-A12 ARM processors"
"cortex-a12"
"Cortex-A15 ARM processors"
"cortex-a15"
"Cortex-A17 ARM processors"
"cortex-a17"
"Cortex-A32 ARM processors"
"cortex-a32"
"Cortex-A35 ARM processors"
"cortex-a35"
"Cortex-A5 ARM processors"
"cortex-a5"
"Cortex-A53 ARM processors"
"cortex-a53"
"Cortex-A55 ARM processors"
"cortex-a55"
"Cortex-A57 ARM processors"
"cortex-a57"
"Cortex-A7 ARM processors"
"cortex-a7"
"Cortex-A72 ARM processors"
"cortex-a72"
"Cortex-A73 ARM processors"
"cortex-a73"
"Cortex-A75 ARM processors"
"cortex-a75"
"Cortex-A8 ARM processors"
"cortex-a8"
"Cortex-A9 ARM processors"
"cortex-a9"
"cortex-m0"
"cortex-m0plus"
"cortex-m1"
"cortex-m23"
"Cortex-M3 ARM processors"
"cortex-m3"
"cortex-m33"
"cortex-m4"
"cortex-m7"
"Cortex-R4 ARM processors"
"cortex-r4"
"cortex-r4f"
"Cortex-R5 ARM processors"
"cortex-r5"
"Cortex-R52 ARM processors"
"cortex-r52"
"Cortex-R7 ARM processors"
"cortex-r7"
"cortex-r8"
"Could not find function in stream"
"Could not find incbin file '"
"Could not find include file '"
"Could not find TBAA parent in struct type node"
"Couldn't read fourth byte of EVEX prefix"
"Couldn't read second byte of EVEX prefix"
"Couldn't read second byte of VEX"
"Couldn't read second byte of XOP"
"Couldn't read third byte of EVEX prefix"
"Count is negative"
"Count must either be a signed constant or a DIVariable"
"count"
"covariant return thunk to "
"CPACR_EL1"
"CPACR_EL12"
"CPM_IOACC_CTL_EL3"
"CPSR"
"CPTR_EL2"
"CPTR_EL3"
"CPU fuses address generation and memory operations"
"CPU fuses AES crypto operations"
"CPU fuses AES/PMULL and EOR operations"
"CPU fuses arithmetic + cbz/cbnz operations"
"CPU fuses arithmetic+bcc operations"
"CPU fuses conditional select operations"
"CPU fuses literal generation operations"
"CPU has a fastpath logical shift of up to 3 places"
"cpu_clk_unhalted"
"cpu-name"
"cputype ("
"CR"
"crc"
"crypto-neon-fp-armv8"
"crypto"
"cryptoff field of "
"cryptoff field plus cryptsize field of "
"csdb"
"csdb$\xFF\x02\x01"
"cset $\x01, $\xFF\x04\x14"
"csetm $\x01, $\xFF\x04\x14"
"CSK_MD5"
"CSK_SHA1"
"CSSELR_EL1"
"cstring_literals"
"CSW"
"csync"
"ctlz.trunc"
"ctlz"
"ctpop.trunc"
"ctpop"
"CTR_EL0"
"CU @ {0:x} not covered by any Name Index\n"
"cu + 0x%2.2x"
"cu + 0x%4.4x"
"cu + 0x%8.8llx"
"cu + 0x%llx"
"CU count"
"cu_offset = 0x%8.8x, addr_size = 0x%2.2x, seg_size = 0x%2.2x\n"
"CU[%u]: 0x%08x\n"
"cuda"
"CurrentEL"
"custom-cheap-as-move"
"Custom"
"CVAC"
"CVAP"
"CVAU"
"cvt"
"cvtps2pd"
"cvttpd2dq.256"
"cvttps2dq.128"
"cvttps2dq.256"
"cvtu"
"cx16"
"cxx_fast_tlscc"
"Cycle detected in struct path"
"cyclone"
"cygnus"
"CyUnitB"
"CyUnitBR"
"CyUnitFloatDiv"
"CyUnitI"
"CyUnitID"
"CyUnitIM"
"CyUnitIntDiv"
"CyUnitIS"
"CyUnitLS"
"CyUnitV"
"CyUnitVC"
"CyUnitVD"
"CyUnitVM"
"d"
"d\t"
"d16"
"DA"
"DACR32_EL2"
"DAIF"
"DAIFClr"
"DAIFSet"
"darwin"
"Data "
"data in code info"
"Data in code table ("
"Data section ended prematurely"
"Data segment in two COMDATs"
"data_owner "
"data-in-code"
"DATA"
"data/size"
"dataoff field of "
"dataoff field plus datasize field of "
"db"
"dbg intrinsic without variable"
"DBGAUTHSTATUS_EL1"
"DBGBCR0_EL1"
"DBGBCR1_EL1"
"DBGBCR10_EL1"
"DBGBCR11_EL1"
"DBGBCR12_EL1"
"DBGBCR13_EL1"
"DBGBCR14_EL1"
"DBGBCR15_EL1"
"DBGBCR2_EL1"
"DBGBCR3_EL1"
"DBGBCR4_EL1"
"DBGBCR5_EL1"
"DBGBCR6_EL1"
"DBGBCR7_EL1"
"DBGBCR8_EL1"
"DBGBCR9_EL1"
"DBGBVR0_EL1"
"DBGBVR1_EL1"
"DBGBVR10_EL1"
"DBGBVR11_EL1"
"DBGBVR12_EL1"
"DBGBVR13_EL1"
"DBGBVR14_EL1"
"DBGBVR15_EL1"
"DBGBVR2_EL1"
"DBGBVR3_EL1"
"DBGBVR4_EL1"
"DBGBVR5_EL1"
"DBGBVR6_EL1"
"DBGBVR7_EL1"
"DBGBVR8_EL1"
"DBGBVR9_EL1"
"DBGCLAIMCLR_EL1"
"DBGCLAIMSET_EL1"
"DBGDTR_EL0"
"DBGDTRRX_EL0"
"DBGDTRTX_EL0"
"DBGPRCR_EL1"
"DBGVCR32_EL2"
"DBGWCR0_EL1"
"DBGWCR1_EL1"
"DBGWCR10_EL1"
"DBGWCR11_EL1"
"DBGWCR12_EL1"
"DBGWCR13_EL1"
"DBGWCR14_EL1"
"DBGWCR15_EL1"
"DBGWCR2_EL1"
"DBGWCR3_EL1"
"DBGWCR4_EL1"
"DBGWCR5_EL1"
"DBGWCR6_EL1"
"DBGWCR7_EL1"
"DBGWCR8_EL1"
"DBGWCR9_EL1"
"DBGWVR0_EL1"
"DBGWVR1_EL1"
"DBGWVR10_EL1"
"DBGWVR11_EL1"
"DBGWVR12_EL1"
"DBGWVR13_EL1"
"DBGWVR14_EL1"
"DBGWVR15_EL1"
"DBGWVR2_EL1"
"DBGWVR3_EL1"
"DBGWVR4_EL1"
"DBGWVR5_EL1"
"DBGWVR6_EL1"
"DBGWVR7_EL1"
"DBGWVR8_EL1"
"DBGWVR9_EL1"
"dc\t"
"DC1"
"DC2"
"DC3"
"DC4"
"dcps1"
"dcps2"
"dcps3"
"DCZID_EL0"
"Debug Info Version"
"debug_aranges"
"debug_cu_index"
"debug_frame"
"debug_info.dwo"
"debug_line_str"
"debug_line.dwo"
"debug_line["
"debug_loc.dwo"
"debug_macinfo"
"debug_names_begin"
"debug_names"
"debug_pubnames"
"debug_pubtypes"
"debug_range"
"debug_rnglists"
"debug_str_offs"
"debug_str_offsets.dwo"
"debug_str_offsets"
"debug_str.dwo"
"debug_tu_index"
"debug_types.dwo"
"debug_types"
"debug-pass"
"debug"
"Debugging"
"debugInfoForProfiling"
"DebugLoc"
"decb\t$\x01, $\xFF\x03\x0E"
"decb\t$\x01"
"decd\t$\x01, $\xFF\x03\x0E"
"decd\t$\x01"
"decd\t$\xFF\x01\x10, $\xFF\x03\x0E"
"decd\t$\xFF\x01\x10"
"dech\t$\x01, $\xFF\x03\x0E"
"dech\t$\x01"
"dech\t$\xFF\x01\t, $\xFF\x03\x0E"
"dech\t$\xFF\x01\t"
"decimal128"
"decimal16"
"decimal32"
"decimal64"
"Declaration may not be in a Comdat!"
"declaration"
"declare"
"decltype("
"decltype(auto)"
"decoding address ranges: "
"decw\t$\x01, $\xFF\x03\x0E"
"decw\t$\x01"
"decw\t$\xFF\x01\x0B, $\xFF\x03\x0E"
"decw\t$\xFF\x01\x0B"
"Default for platform"
"Default"
"define "
"DEL"
"Demangle symbols names"
"demangle"
"deprecated since v7, use 'dmb'"
"deprecated since v7, use 'dsb'"
"deprecated since v7, use 'isb'"
"dereferenceable_or_null"
"dereferenceable, dereferenceable_or_null apply only to load instructions, use attributes for calls or invokes"
"dereferenceable, dereferenceable_or_null apply only to pointer types"
"dereferenceable, dereferenceable_or_null metadata value must be an i64!"
"dereferenceable, dereferenceable_or_null take one operand!"
"dereferenceable"
"Description"
"DestTy too big for FPTrunc"
"DestTy too big for Trunc"
"DestTy too small for FPExt"
"Details"
"df"
"dfb"
"dfb$\xFF\x02\x01"
"DIA is not installed on the system"
"DICompileUnit not listed in llvm.dbg.cu"
"Did not detect a valid range list table with base = 0x%x"
"Did not see access type in access path!"
"Didn't find a three-byte escape prefix"
"DIE address ranges are not contained in its parent's ranges:"
"DIE contains invalid DWARF expression:"
"DIE has invalid DW_AT_ranges encoding:"
"DIE has invalid DW_AT_stmt_list encoding:"
"DIE has overlapping address ranges: "
"DIE offset base"
"DIE with tag "
"DIEs have overlapping address ranges:"
"diff16"
"diff32"
"diff8"
"DIFlagAllCallsDescribed must be attached to a definition"
"DIFlagAllCallsDescribed"
"DIFlagAppleBlock"
"DIFlagArtificial"
"DIFlagBigEndian"
"DIFlagBitField"
"DIFlagBlockByrefStruct"
"DIFlagExplicit"
"DIFlagFixedEnum"
"DIFlagFwdDecl"
"DIFlagIndirectVirtualBase"
"DIFlagIntroducedVirtual"
"DIFlagLittleEndian"
"DIFlagLValueReference"
"DIFlagMainSubprogram"
"DIFlagMultipleInheritance"
"DIFlagNoReturn"
"DIFlagObjcClassComplete"
"DIFlagObjectPointer"
"DIFlagPrivate"
"DIFlagProtected"
"DIFlagPrototyped"
"DIFlagPublic"
"DIFlagReserved"
"DIFlagRValueReference"
"DIFlagSingleInheritance"
"DIFlagStaticMember"
"DIFlagThunk"
"DIFlagTrivial"
"DIFlagTypePassByReference"
"DIFlagTypePassByValue"
"DIFlagVector"
"DIFlagVirtual"
"DIFlagVirtualInheritance"
"DIFlagZero"
"digit"
"Direct"
"directional label undefined"
"directive '.lsym' is unsupported"
"directive must appear between .cv_fpo_proc and .cv_fpo_endprologue"
"directory"
"dis-symname"
"Disable +1 predication cost for instructions updating CPSR"
"disable debug output"
"Disable emission of the extended flags in .loc directives."
"Disable latency scheduling heuristic"
"Disable symbolizing crash backtraces."
"Disable VFP / NEON MAC instructions"
"disable-latency-sched-heuristic"
"disable-ondemand-mds-loading"
"disable-postra-scheduler"
"disable-symbolication"
"Disable"
"Disabled"
"Disallow all unaligned memory access"
"Disassemble beginning at address"
"disassemble just this symbol's instructions (requires -macho)"
"disassemble-all"
"disassemble"
"Disassembly of section "
"discard"
"discriminator can only appear on variant part"
"discriminator isn't a constant integer"
"discriminator"
"dispatched_fpu:pipe0"
"dispatched_fpu:pipe1"
"Display all available header information"
"Display all available options"
"Display archive header information"
"Display assembler mnemonics for the machine instructions"
"Display available options (-help-hidden for more)"
"Display contents of faultmap section"
"Display format specific file headers"
"Display list of all available options"
"Display list of available options (-help-list-hidden for more)"
"Display mach-o binding info"
"Display mach-o exported symbols"
"Display mach-o lazy binding info"
"Display mach-o rebasing info"
"Display mach-o weak binding info"
"Display only the first format specific file header"
"Display source inlined with disassembly. Implies disassemble object"
"Display source line numbers with disassembly. Implies disassemble object"
"Display summaries of the headers for each section."
"Display the content of each section"
"Display the contents of the overall file header"
"Display the dynamic relocation entries in the file"
"Display the relocation entries in the file"
"Display the symbol table"
"Display the version of this program"
"Display unwind information"
"DISR_EL1"
"distinct "
"DISubprogram attached to more than one function"
"DIT"
"DLE"
"dllexport "
"dllimport "
"DLR_EL0"
"do not symbolic operands when disassembling (requires -macho)"
"does not allow a value! '"
"Does not support ARM mode execution"
"dollar-sign"
"Don't know what kind of handler this is!"
"Don't schedule again after register allocation"
"Don't use movt/movw pairs for 32-bit imms"
"Don't widen VMOVS to VMOVD"
"dont-widen-vmovs"
"dotprod"
"double"
"dragonfly"
"dso_local "
"dsp"
"DSPSR_EL0"
"dsym"
"dtpmod"
"DTPOFF"
"DTPREL"
"dtprel@h"
"dtprel@ha"
"dtprel@high"
"dtprel@higha"
"dtprel@higher"
"dtprel@highera"
"dtprel@highest"
"dtprel@highesta"
"dtprel@l"
"Dump of dwarf debug sections:"
"Dump the raw binary contents of the clang AST section"
"dumping support for LLE of kind "
"Duplicate abbreviation code."
"Duplicate integer as switch case"
"Duplicate personality in entry at %lx"
"Duplicate symbol name "
"dupm $\xFF\x01\t, $\xFF\x02\n"
"dupm $\xFF\x01\x06, $\xFF\x02\x08"
"dupm $\xFF\x01\x0B, $\xFF\x02\x04"
"DW_"
"DW_ACCESS_private"
"DW_ACCESS_protected"
"DW_ACCESS_public"
"DW_APPLE_PROPERTY_0x%llx"
"DW_APPLE_PROPERTY_assign"
"DW_APPLE_PROPERTY_atomic"
"DW_APPLE_PROPERTY_class"
"DW_APPLE_PROPERTY_copy"
"DW_APPLE_PROPERTY_getter"
"DW_APPLE_PROPERTY_nonatomic"
"DW_APPLE_PROPERTY_null_resettable"
"DW_APPLE_PROPERTY_nullability"
"DW_APPLE_PROPERTY_readonly"
"DW_APPLE_PROPERTY_readwrite"
"DW_APPLE_PROPERTY_retain"
"DW_APPLE_PROPERTY_setter"
"DW_APPLE_PROPERTY_strong"
"DW_APPLE_PROPERTY_unsafe_unretained"
"DW_APPLE_PROPERTY_weak"
"DW_AT_abstract_origin"
"DW_AT_accessibility"
"DW_AT_addr_base"
"DW_AT_address_class"
"DW_AT_alignment"
"DW_AT_allocated"
"DW_AT_APPLE_block"
"DW_AT_APPLE_flags"
"DW_AT_APPLE_isa"
"DW_AT_APPLE_major_runtime_vers"
"DW_AT_APPLE_objc_complete_type"
"DW_AT_APPLE_omit_frame_ptr"
"DW_AT_APPLE_optimized"
"DW_AT_APPLE_property_attribute"
"DW_AT_APPLE_property_getter"
"DW_AT_APPLE_property_name"
"DW_AT_APPLE_property_setter"
"DW_AT_APPLE_property"
"DW_AT_APPLE_ptrauth_address_discriminated"
"DW_AT_APPLE_ptrauth_extra_discriminator"
"DW_AT_APPLE_ptrauth_key"
"DW_AT_APPLE_runtime_class"
"DW_AT_artificial"
"DW_AT_associated"
"DW_AT_base_types"
"DW_AT_binary_scale"
"DW_AT_bit_offset"
"DW_AT_bit_size"
"DW_AT_bit_stride"
"DW_AT_body_begin"
"DW_AT_body_end"
"DW_AT_BORLAND_closure"
"DW_AT_BORLAND_Delphi_ABI"
"DW_AT_BORLAND_Delphi_anonymous_method"
"DW_AT_BORLAND_Delphi_class"
"DW_AT_BORLAND_Delphi_constructor"
"DW_AT_BORLAND_Delphi_destructor"
"DW_AT_BORLAND_Delphi_frameptr"
"DW_AT_BORLAND_Delphi_interface"
"DW_AT_BORLAND_Delphi_metaclass"
"DW_AT_BORLAND_Delphi_record"
"DW_AT_BORLAND_Delphi_return"
"DW_AT_BORLAND_Delphi_unit"
"DW_AT_BORLAND_property_default"
"DW_AT_BORLAND_property_implements"
"DW_AT_BORLAND_property_index"
"DW_AT_BORLAND_property_read"
"DW_AT_BORLAND_property_write"
"DW_AT_byte_size"
"DW_AT_byte_stride"
"DW_AT_call_all_calls"
"DW_AT_call_all_source_calls"
"DW_AT_call_all_tail_calls"
"DW_AT_call_column"
"DW_AT_call_data_location"
"DW_AT_call_data_value"
"DW_AT_call_file"
"DW_AT_call_line"
"DW_AT_call_origin"
"DW_AT_call_parameter"
"DW_AT_call_pc"
"DW_AT_call_return_pc"
"DW_AT_call_tail_call"
"DW_AT_call_target_clobbered"
"DW_AT_call_target"
"DW_AT_call_value"
"DW_AT_calling_convention"
"DW_AT_common_reference"
"DW_AT_comp_dir"
"DW_AT_const_expr"
"DW_AT_const_value"
"DW_AT_containing_type"
"DW_AT_count"
"DW_AT_data_bit_offset"
"DW_AT_data_location"
"DW_AT_data_member_location"
"DW_AT_decimal_scale"
"DW_AT_decimal_sign"
"DW_AT_decl_column"
"DW_AT_decl_file"
"DW_AT_decl_line"
"DW_AT_declaration"
"DW_AT_default_value"
"DW_AT_defaulted"
"DW_AT_deleted"
"DW_AT_description"
"DW_AT_digit_count"
"DW_AT_discr_list"
"DW_AT_discr_value"
"DW_AT_discr"
"DW_AT_dwo_id"
"DW_AT_dwo_name"
"DW_AT_elemental"
"DW_AT_encoding"
"DW_AT_endianity"
"DW_AT_entry_pc"
"DW_AT_enum_class"
"DW_AT_explicit"
"DW_AT_export_symbols"
"DW_AT_extension"
"DW_AT_external"
"DW_AT_frame_base"
"DW_AT_friend"
"DW_AT_GNU_addr_base"
"DW_AT_GNU_all_call_sites"
"DW_AT_GNU_call_site_value"
"DW_AT_GNU_discriminator"
"DW_AT_GNU_dwo_id"
"DW_AT_GNU_dwo_name"
"DW_AT_GNU_macros"
"DW_AT_GNU_odr_signature"
"DW_AT_GNU_pubnames"
"DW_AT_GNU_pubtypes"
"DW_AT_GNU_ranges_base"
"DW_AT_GNU_template_name"
"DW_AT_GNU_vector"
"DW_AT_high_pc"
"DW_AT_identifier_case"
"DW_AT_import"
"DW_AT_inline"
"DW_AT_is_optional"
"DW_AT_language"
"DW_AT_linkage_name"
"DW_AT_LLVM_config_macros"
"DW_AT_LLVM_include_path"
"DW_AT_LLVM_isysroot"
"DW_AT_location"
"DW_AT_loclists_base"
"DW_AT_low_pc"
"DW_AT_lower_bound"
"DW_AT_mac_info"
"DW_AT_macro_info"
"DW_AT_macros"
"DW_AT_main_subprogram"
"DW_AT_MIPS_abstract_name"
"DW_AT_MIPS_allocatable_dopetype"
"DW_AT_MIPS_assumed_shape_dopetype"
"DW_AT_MIPS_assumed_size"
"DW_AT_MIPS_clone_origin"
"DW_AT_MIPS_epilog_begin"
"DW_AT_MIPS_has_inlines"
"DW_AT_MIPS_linkage_name"
"DW_AT_MIPS_loop_begin"
"DW_AT_MIPS_loop_unroll_factor"
"DW_AT_MIPS_ptr_dopetype"
"DW_AT_MIPS_software_pipeline_depth"
"DW_AT_MIPS_stride_byte"
"DW_AT_MIPS_stride_elem"
"DW_AT_MIPS_stride"
"DW_AT_MIPS_tail_loop_begin"
"DW_AT_mutable"
"DW_AT_name"
"DW_AT_namelist_item"
"DW_AT_noreturn"
"DW_AT_object_pointer"
"DW_AT_ordering"
"DW_AT_picture_string"
"DW_AT_priority"
"DW_AT_producer"
"DW_AT_prototyped"
"DW_AT_pure"
"DW_AT_ranges offset is beyond .debug_ranges bounds:"
"DW_AT_ranges"
"DW_AT_rank"
"DW_AT_recursive"
"DW_AT_reference"
"DW_AT_return_addr"
"DW_AT_rnglists_base"
"DW_AT_rvalue_reference"
"DW_AT_segment"
"DW_AT_sf_names"
"DW_AT_sibling"
"DW_AT_signature"
"DW_AT_small"
"DW_AT_specification"
"DW_AT_src_coords"
"DW_AT_src_info"
"DW_AT_start_scope"
"DW_AT_static_link"
"DW_AT_stmt_list offset is beyond .debug_line bounds: "
"DW_AT_stmt_list"
"DW_AT_str_offsets_base"
"DW_AT_string_length_bit_size"
"DW_AT_string_length_byte_size"
"DW_AT_string_length"
"DW_AT_threads_scaled"
"DW_AT_trampoline"
"DW_AT_type"
"DW_AT_upper_bound"
"DW_AT_use_location"
"DW_AT_use_UTF8"
"DW_AT_variable_parameter"
"DW_AT_virtuality"
"DW_AT_visibility"
"DW_AT_vtable_elem_location"
"DW_ATE_address"
"DW_ATE_ASCII"
"DW_ATE_boolean"
"DW_ATE_complex_float"
"DW_ATE_decimal_float"
"DW_ATE_edited"
"DW_ATE_float"
"DW_ATE_imaginary_float"
"DW_ATE_numeric_string"
"DW_ATE_packed_decimal"
"DW_ATE_signed_char"
"DW_ATE_signed_fixed"
"DW_ATE_signed"
"DW_ATE_UCS"
"DW_ATE_unsigned_char"
"DW_ATE_unsigned_fixed"
"DW_ATE_unsigned"
"DW_ATE_UTF"
"DW_ATOM_cu_offset"
"DW_ATOM_die_offset"
"DW_ATOM_die_tag"
"DW_ATOM_ext_types"
"DW_ATOM_null"
"DW_ATOM_qual_name_hash"
"DW_ATOM_type_flags"
"DW_ATOM_unknown_"
"DW_CC_BORLAND_fastcall"
"DW_CC_BORLAND_msfastcall"
"DW_CC_BORLAND_msreturn"
"DW_CC_BORLAND_pascal"
"DW_CC_BORLAND_safecall"
"DW_CC_BORLAND_stdcall"
"DW_CC_BORLAND_thiscall"
"DW_CC_GDB_IBM_OpenCL"
"DW_CC_GNU_borland_fastcall_i386"
"DW_CC_GNU_renesas_sh"
"DW_CC_LLVM_AAPCS_VFP"
"DW_CC_LLVM_AAPCS"
"DW_CC_LLVM_IntelOclBicc"
"DW_CC_LLVM_OpenCLKernel"
"DW_CC_LLVM_PreserveAll"
"DW_CC_LLVM_PreserveMost"
"DW_CC_LLVM_SpirFunction"
"DW_CC_LLVM_Swift"
"DW_CC_LLVM_vectorcall"
"DW_CC_LLVM_Win64"
"DW_CC_LLVM_X86_64SysV"
"DW_CC_LLVM_X86RegCall"
"DW_CC_nocall"
"DW_CC_normal"
"DW_CC_pass_by_reference"
"DW_CC_pass_by_value"
"DW_CC_program"
"DW_CFA_advance_loc"
"DW_CFA_advance_loc1"
"DW_CFA_advance_loc2"
"DW_CFA_advance_loc4"
"DW_CFA_def_cfa_expression"
"DW_CFA_def_cfa_offset_sf"
"DW_CFA_def_cfa_offset"
"DW_CFA_def_cfa_register"
"DW_CFA_def_cfa_sf"
"DW_CFA_def_cfa"
"DW_CFA_expression"
"DW_CFA_GNU_args_size"
"DW_CFA_GNU_window_save"
"DW_CFA_MIPS_advance_loc8"
"DW_CFA_nop"
"DW_CFA_offset_extended_sf"
"DW_CFA_offset_extended"
"DW_CFA_offset"
"DW_CFA_register"
"DW_CFA_remember_state"
"DW_CFA_restore_extended"
"DW_CFA_restore_state"
"DW_CFA_restore"
"DW_CFA_same_value"
"DW_CFA_set_loc"
"DW_CFA_undefined"
"DW_CFA_val_expression"
"DW_CFA_val_offset_sf"
"DW_CFA_val_offset"
"DW_DS_leading_overpunch"
"DW_DS_leading_separate"
"DW_DS_trailing_overpunch"
"DW_DS_trailing_separate"
"DW_DS_unsigned"
"DW_END_big"
"DW_END_default"
"DW_END_hi_user"
"DW_END_little"
"DW_END_lo_user"
"DW_FORM_addr"
"DW_FORM_addrx"
"DW_FORM_addrx1"
"DW_FORM_addrx2"
"DW_FORM_addrx3"
"DW_FORM_addrx4"
"DW_FORM_block"
"DW_FORM_block1"
"DW_FORM_block2"
"DW_FORM_block4"
"DW_FORM_data1"
"DW_FORM_data16"
"DW_FORM_data2"
"DW_FORM_data4"
"DW_FORM_data8"
"DW_FORM_exprloc"
"DW_FORM_flag_present"
"DW_FORM_flag"
"DW_FORM_GNU_addr_index"
"DW_FORM_GNU_ref_alt"
"DW_FORM_GNU_str_index"
"DW_FORM_GNU_strp_alt"
"DW_FORM_implicit_const"
"DW_FORM_indirect"
"DW_FORM_line_strp"
"DW_FORM_loclistx"
"DW_FORM_ref_addr offset beyond .debug_info bounds:\n"
"DW_FORM_ref_addr"
"DW_FORM_ref_sig8"
"DW_FORM_ref_sup4"
"DW_FORM_ref_sup8"
"DW_FORM_ref_udata"
"DW_FORM_ref1"
"DW_FORM_ref2"
"DW_FORM_ref4"
"DW_FORM_ref8"
"DW_FORM_rnglistx"
"DW_FORM_sdata"
"DW_FORM_sec_offset"
"DW_FORM_string"
"DW_FORM_strp offset beyond .debug_str bounds:\n"
"DW_FORM_strp_sup"
"DW_FORM_strp"
"DW_FORM_strx"
"DW_FORM_strx1"
"DW_FORM_strx2"
"DW_FORM_strx3"
"DW_FORM_strx4"
"DW_FORM_udata"
"DW_FORM(0x%4.4x)"
"DW_ID_case_insensitive"
"DW_ID_case_sensitive"
"DW_ID_down_case"
"DW_ID_up_case"
"DW_IDX_compile_unit"
"DW_IDX_die_offset"
"DW_IDX_parent"
"DW_IDX_type_hash"
"DW_IDX_type_unit"
"DW_INL_declared_inlined"
"DW_INL_declared_not_inlined"
"DW_INL_inlined"
"DW_INL_not_inlined"
"DW_LANG_Ada83"
"DW_LANG_Ada95"
"DW_LANG_BLISS"
"DW_LANG_BORLAND_Delphi"
"DW_LANG_C_plus_plus_03"
"DW_LANG_C_plus_plus_11"
"DW_LANG_C_plus_plus_14"
"DW_LANG_C_plus_plus"
"DW_LANG_C"
"DW_LANG_C11"
"DW_LANG_C89"
"DW_LANG_C99"
"DW_LANG_Cobol74"
"DW_LANG_Cobol85"
"DW_LANG_D"
"DW_LANG_Dylan"
"DW_LANG_Fortran03"
"DW_LANG_Fortran08"
"DW_LANG_Fortran77"
"DW_LANG_Fortran90"
"DW_LANG_Fortran95"
"DW_LANG_Go"
"DW_LANG_GOOGLE_RenderScript"
"DW_LANG_Haskell"
"DW_LANG_Java"
"DW_LANG_Julia"
"DW_LANG_Mips_Assembler"
"DW_LANG_Modula2"
"DW_LANG_Modula3"
"DW_LANG_ObjC_plus_plus"
"DW_LANG_ObjC"
"DW_LANG_OCaml"
"DW_LANG_OpenCL"
"DW_LANG_Pascal83"
"DW_LANG_PLI"
"DW_LANG_Python"
"DW_LANG_RenderScript"
"DW_LANG_Rust"
"DW_LANG_Swift"
"DW_LANG_UPC"
"DW_LNE_define_file"
"DW_LNE_end_sequence"
"DW_LNE_set_address"
"DW_LNE_set_discriminator"
"DW_LNS_advance_line"
"DW_LNS_advance_pc"
"DW_LNS_const_add_pc"
"DW_LNS_copy"
"DW_LNS_extended_op"
"DW_LNS_fixed_advance_pc"
"DW_LNS_negate_stmt"
"DW_LNS_set_basic_block"
"DW_LNS_set_column"
"DW_LNS_set_epilogue_begin"
"DW_LNS_set_file"
"DW_LNS_set_isa"
"DW_LNS_set_prologue_end"
"DW_MACINFO_define"
"DW_MACINFO_end_file"
"DW_MACINFO_invalid"
"DW_MACINFO_start_file"
"DW_MACINFO_undef"
"DW_MACINFO_vendor_ext"
"DW_OP_abs"
"DW_OP_addr"
"DW_OP_addrx"
"DW_OP_and"
"DW_OP_bit_piece"
"DW_OP_bra"
"DW_OP_breg0"
"DW_OP_breg1"
"DW_OP_breg10"
"DW_OP_breg11"
"DW_OP_breg12"
"DW_OP_breg13"
"DW_OP_breg14"
"DW_OP_breg15"
"DW_OP_breg16"
"DW_OP_breg17"
"DW_OP_breg18"
"DW_OP_breg19"
"DW_OP_breg2"
"DW_OP_breg20"
"DW_OP_breg21"
"DW_OP_breg22"
"DW_OP_breg23"
"DW_OP_breg24"
"DW_OP_breg25"
"DW_OP_breg26"
"DW_OP_breg27"
"DW_OP_breg28"
"DW_OP_breg29"
"DW_OP_breg3"
"DW_OP_breg30"
"DW_OP_breg31"
"DW_OP_breg4"
"DW_OP_breg5"
"DW_OP_breg6"
"DW_OP_breg7"
"DW_OP_breg8"
"DW_OP_breg9"
"DW_OP_bregx"
"DW_OP_call_frame_cfa"
"DW_OP_call_ref"
"DW_OP_call2"
"DW_OP_call4"
"DW_OP_const_type"
"DW_OP_const1s"
"DW_OP_const1u"
"DW_OP_const2s"
"DW_OP_const2u"
"DW_OP_const4s"
"DW_OP_const4u"
"DW_OP_const8s"
"DW_OP_const8u"
"DW_OP_consts"
"DW_OP_constu"
"DW_OP_constx"
"DW_OP_convert"
"DW_OP_deref_size"
"DW_OP_deref_type"
"DW_OP_deref"
"DW_OP_div"
"DW_OP_drop"
"DW_OP_dup"
"DW_OP_entry_value"
"DW_OP_eq"
"DW_OP_fbreg"
"DW_OP_form_tls_address"
"DW_OP_ge"
"DW_OP_GNU_addr_index"
"DW_OP_GNU_const_index"
"DW_OP_GNU_push_tls_address"
"DW_OP_gt"
"DW_OP_implicit_pointer"
"DW_OP_implicit_value"
"DW_OP_le"
"DW_OP_lit0"
"DW_OP_lit1"
"DW_OP_lit10"
"DW_OP_lit11"
"DW_OP_lit12"
"DW_OP_lit13"
"DW_OP_lit14"
"DW_OP_lit15"
"DW_OP_lit16"
"DW_OP_lit17"
"DW_OP_lit18"
"DW_OP_lit19"
"DW_OP_lit2"
"DW_OP_lit20"
"DW_OP_lit21"
"DW_OP_lit22"
"DW_OP_lit23"
"DW_OP_lit24"
"DW_OP_lit25"
"DW_OP_lit26"
"DW_OP_lit27"
"DW_OP_lit28"
"DW_OP_lit29"
"DW_OP_lit3"
"DW_OP_lit30"
"DW_OP_lit31"
"DW_OP_lit4"
"DW_OP_lit5"
"DW_OP_lit6"
"DW_OP_lit7"
"DW_OP_lit8"
"DW_OP_lit9"
"DW_OP_LLVM_fragment"
"DW_OP_lt"
"DW_OP_minus"
"DW_OP_mod"
"DW_OP_mul"
"DW_OP_ne"
"DW_OP_neg"
"DW_OP_nop"
"DW_OP_not"
"DW_OP_or"
"DW_OP_over"
"DW_OP_pick"
"DW_OP_piece"
"DW_OP_plus_uconst"
"DW_OP_plus"
"DW_OP_push_object_address"
"DW_OP_reg0"
"DW_OP_reg1"
"DW_OP_reg10"
"DW_OP_reg11"
"DW_OP_reg12"
"DW_OP_reg13"
"DW_OP_reg14"
"DW_OP_reg15"
"DW_OP_reg16"
"DW_OP_reg17"
"DW_OP_reg18"
"DW_OP_reg19"
"DW_OP_reg2"
"DW_OP_reg20"
"DW_OP_reg21"
"DW_OP_reg22"
"DW_OP_reg23"
"DW_OP_reg24"
"DW_OP_reg25"
"DW_OP_reg26"
"DW_OP_reg27"
"DW_OP_reg28"
"DW_OP_reg29"
"DW_OP_reg3"
"DW_OP_reg30"
"DW_OP_reg31"
"DW_OP_reg4"
"DW_OP_reg5"
"DW_OP_reg6"
"DW_OP_reg7"
"DW_OP_reg8"
"DW_OP_reg9"
"DW_OP_regval_type"
"DW_OP_regx"
"DW_OP_reinterpret"
"DW_OP_rot"
"DW_OP_shl"
"DW_OP_shr"
"DW_OP_shra"
"DW_OP_skip"
"DW_OP_stack_value"
"DW_OP_swap"
"DW_OP_xderef_size"
"DW_OP_xderef_type"
"DW_OP_xderef"
"DW_OP_xor"
"DW_ORD_col_major"
"DW_ORD_row_major"
"DW_RLE_base_address"
"DW_RLE_base_addressx"
"DW_RLE_end_of_list"
"DW_RLE_offset_pair"
"DW_RLE_start_end"
"DW_RLE_start_length"
"DW_RLE_startx_endx"
"DW_RLE_startx_length"
"DW_TAG_"
"DW_TAG_access_declaration"
"DW_TAG_APPLE_property"
"DW_TAG_APPLE_ptrauth_type"
"DW_TAG_array_type"
"DW_TAG_atomic_type"
"DW_TAG_base_type"
"DW_TAG_BORLAND_Delphi_dynamic_array"
"DW_TAG_BORLAND_Delphi_set"
"DW_TAG_BORLAND_Delphi_string"
"DW_TAG_BORLAND_Delphi_variant"
"DW_TAG_BORLAND_property"
"DW_TAG_call_site_parameter"
"DW_TAG_call_site"
"DW_TAG_catch_block"
"DW_TAG_class_template"
"DW_TAG_class_type"
"DW_TAG_coarray_type"
"DW_TAG_common_block"
"DW_TAG_common_inclusion"
"DW_TAG_compile_unit"
"DW_TAG_condition"
"DW_TAG_const_type"
"DW_TAG_constant"
"DW_TAG_dwarf_procedure"
"DW_TAG_dynamic_type"
"DW_TAG_entry_point"
"DW_TAG_enumeration_type"
"DW_TAG_enumerator"
"DW_TAG_file_type"
"DW_TAG_formal_parameter"
"DW_TAG_format_label"
"DW_TAG_friend"
"DW_TAG_function_template"
"DW_TAG_generic_subrange"
"DW_TAG_GNU_call_site_parameter"
"DW_TAG_GNU_call_site"
"DW_TAG_GNU_formal_parameter_pack"
"DW_TAG_GNU_template_parameter_pack"
"DW_TAG_GNU_template_template_param"
"DW_TAG_immutable_type"
"DW_TAG_imported_declaration"
"DW_TAG_imported_module"
"DW_TAG_imported_unit"
"DW_TAG_inheritance"
"DW_TAG_inlined_subroutine"
"DW_TAG_interface_type"
"DW_TAG_label"
"DW_TAG_lexical_block"
"DW_TAG_member"
"DW_TAG_MIPS_loop"
"DW_TAG_module"
"DW_TAG_namelist_item"
"DW_TAG_namelist"
"DW_TAG_namespace"
"DW_TAG_null"
"DW_TAG_packed_type"
"DW_TAG_partial_unit"
"DW_TAG_pointer_type"
"DW_TAG_ptr_to_member_type"
"DW_TAG_reference_type"
"DW_TAG_restrict_type"
"DW_TAG_rvalue_reference_type"
"DW_TAG_set_type"
"DW_TAG_shared_type"
"DW_TAG_skeleton_unit"
"DW_TAG_string_type"
"DW_TAG_structure_type"
"DW_TAG_subprogram"
"DW_TAG_subrange_type"
"DW_TAG_subroutine_type"
"DW_TAG_template_alias"
"DW_TAG_template_type_parameter"
"DW_TAG_template_value_parameter"
"DW_TAG_thrown_type"
"DW_TAG_try_block"
"DW_TAG_type_unit"
"DW_TAG_typedef"
"DW_TAG_union_type"
"DW_TAG_unspecified_parameters"
"DW_TAG_unspecified_type"
"DW_TAG_variable"
"DW_TAG_variant_part"
"DW_TAG_variant"
"DW_TAG_volatile_type"
"DW_TAG_with_stmt"
"DW_UT_compile"
"DW_UT_partial"
"DW_UT_skeleton"
"DW_UT_split_compile"
"DW_UT_split_type"
"DW_UT_type"
"DW_VIRTUALITY_none"
"DW_VIRTUALITY_pure_virtual"
"DW_VIRTUALITY_virtual"
"DW_VIS_exported"
"DW_VIS_local"
"DW_VIS_qualified"
"DWARF address space only applies to pointer or reference types"
"DWARF compile unit extends beyond its bounds cu 0x%8.8x at 0x%8.8x\n"
"DWARF version is not defined in CU, assuming version 5"
"dwarf-extended-loc"
"dwarf"
"DWARF2 only supports one section per compilation unit"
"DWARF32"
"DWARF64 is not supported in .debug_addr at offset 0x%x"
"DWARF64 is not supported in %s at offset 0x%x"
"DWARF64"
"dwarfAddressSpace"
"dwoId"
"dword ptr "
"dyld bind info"
"dyld export info"
"dyld lazy bind info"
"dyld rebase info"
"dyld weak bind info"
"dylib ordinal of re-export "
"dylib-id"
"dylibs-used"
"DYNAMIC RELOCATION RECORDS\n"
"Dynamic Section:\n"
"dynamic sections must be DT_NULL terminated"
"dynamic string table not found"
"dynamic_cast"
"dynamic-reloc"
"e+00"
"eabi"
"eabihf"
"eapsr_g"
"eapsr_nzcvq"
"eapsr_nzcvqg"
"eapsr"
"eb"
"edge sub-string in export trie data at node: 0x"
"EH pad cannot be in entry block."
"EH pad cannot handle exceptions raised within it"
"EH pad jumps through a cycle of pads"
"EH pad must be jumped to via an unwind edge"
"EH pads can't handle each other's exceptions"
"EH_FRAME "
"eh.exceptionpointer argument must be a catchpad"
"eight"
"Elem section ended prematurely"
"ELEM"
"element size of the element-wise atomic memory intrinsic must be a power of 2"
"element size of the element-wise unordered atomic memory intrinsic must be a constant int"
"element size"
"elements"
"elf"
"ELF32-amdgpu"
"ELF32-arm-big"
"ELF32-arm-little"
"ELF32-avr"
"ELF32-hexagon"
"ELF32-i386"
"ELF32-iamcu"
"ELF32-lanai"
"ELF32-mips"
"ELF32-ppc"
"ELF32-riscv"
"ELF32-sparc"
"ELF32-unknown"
"ELF32-x86-64"
"ELF64-aarch64-big"
"ELF64-aarch64-little"
"ELF64-amdgpu"
"ELF64-BPF"
"ELF64-i386"
"ELF64-mips"
"ELF64-ppc64"
"ELF64-riscv"
"ELF64-s390"
"ELF64-sparc"
"ELF64-unknown"
"ELF64-x86-64"
"elfiamcu"
"ELR_EL1"
"ELR_EL12"
"ELR_EL2"
"ELR_EL3"
"elr_hyp"
"EM"
"emissionKind"
"Emit Apple-style NEON assembly"
"Emit AT&T-style assembly"
"Emit generic NEON assembly"
"Emit Intel-style assembly"
"EmitRawText called on an MCStreamer that doesn't support it,  something must not be fully mc'ized\n"
"Emitting values inside a locked bundle is forbidden"
"empty (sub)expression"
"Empty bundle-locked group is forbidden"
"empty string table"
"EMPTY"
"Enable -time-passes memory tracking (this may be slow)"
"Enable 3DNow! Athlon instructions"
"Enable 3DNow! instructions"
"Enable Advanced SIMD instructions"
"Enable AES instructions"
"Enable AES support"
"Enable Aggressive FMA for floating-point."
"Enable ARMv8 CRC-32 checksum instructions"
"Enable ARMv8 FP"
"Enable ARMv8 PMUv3 Performance Monitors extension"
"Enable ARMv8 Reliability, Availability and Serviceability Extensions"
"Enable ARMv8.1 Large System Extension (LSE) atomic instructions"
"Enable ARMv8.1 Limited Ordering Regions extension"
"Enable ARMv8.1 Privileged Access Never extension"
"Enable ARMv8.1 Rounding Double Multiply Add/Subtract instructions"
"Enable ARMv8.1 Virtualization Host Extensions"
"Enable AVX instructions"
"Enable AVX-512 Bit Algorithms"
"Enable AVX-512 Byte and Word Instructions"
"Enable AVX-512 Conflict Detection Instructions"
"Enable AVX-512 Doubleword and Quadword Instructions"
"Enable AVX-512 Exponential and Reciprocal Instructions"
"Enable AVX-512 further Vector Byte Manipulation Instructions"
"Enable AVX-512 instructions"
"Enable AVX-512 Integer Fused Multiple-Add"
"Enable AVX-512 Population Count Instructions"
"Enable AVX-512 PreFetch Instructions"
"Enable AVX-512 Vector Byte Manipulation Instructions"
"Enable AVX-512 Vector Length eXtensions"
"Enable AVX-512 Vector Neural Network Instructions"
"Enable AVX2 instructions"
"Enable Cache Demote"
"Enable Cache Line Zero"
"Enable conditional move instructions"
"Enable cryptographic instructions"
"Enable divide instructions in ARM mode"
"Enable divide instructions in Thumb"
"Enable dot product support"
"Enable fast computation of positive address offsets"
"Enable four-operand fused multiple-add"
"Enable full half-precision floating point"
"Enable Galois Field Arithmetic Instructions"
"Enable half-precision floating point"
"Enable LWP instructions"
"Enable missed optimization remarks from passes whose name match the given regular expression"
"Enable MMX instructions"
"Enable MONITORX/MWAITX timer functionality"
"Enable NEON instructions"
"Enable NOPL instruction"
"Enable optimization analysis remarks from passes whose name match the given regular expression"
"Enable optimization remarks from passes whose name match the given regular expression"
"Enable packed carry-less multiplication instructions"
"Enable protection keys"
"Enable Reliability, Availability and Serviceability extensions"
"Enable retpoline, but with an externally provided thunk."
"Enable Scalable Vector Extension (SVE) instructions"
"Enable SHA instructions"
"Enable SHA1 and SHA256 support"
"Enable SHA512 and SHA3 support"
"Enable SM3 and SM4 support"
"Enable Software Guard Extensions"
"Enable SSE 4.1 instructions"
"Enable SSE 4.2 instructions"
"Enable SSE instructions"
"Enable SSE2 instructions"
"Enable SSE3 instructions"
"Enable SSSE3 instructions"
"Enable Statistical Profiling extension"
"Enable support for ARMv8-M Security Extensions"
"Enable support for CRC instructions"
"Enable support for Cryptography extensions"
"Enable support for dot product instructions"
"Enable support for Performance Monitor extensions"
"Enable support for RCPC extension"
"Enable support for TrustZone security extensions"
"Enable TBM instructions"
"Enable the generation of execute only code."
"Enable three-operand fused multiple-add"
"Enable Thumb2 instructions"
"Enable VFP2 instructions"
"Enable VFP3 instructions"
"Enable VFP4 instructions"
"Enable vpclmulqdq instructions"
"Enable X87 float instructions"
"Enable XOP instructions"
"Enable"
"Enabled"
"Enclosing function does not use GC."
"encoding"
"encoding["
"encoding="
"Encountered a .else that doesn't follow  an .if or an .elseif"
"Encountered a .elseif that doesn't follow an .if or  an .elseif"
"Encountered a .endif that doesn't follow an .if or .else"
"Encountered an operand with an unknown encoding."
"End of a chained region outside a chained region!"
"ending symbol definition without starting one"
"ENQ"
"entity"
"Entry @ 0x"
"Entry block to function must not have predecessors!"
"entry size must be positive"
"enum"
"enums"
"EOF while reading float64"
"EOF while reading string"
"EOF while reading uint8"
"eon\t$\x01, $\x02, $\x03"
"eor\t$\x01, $\x02, $\x03"
"eor\t$\xFF\x01\t, $\xFF\x01\t, $\xFF\x03\n"
"eor\t$\xFF\x01\x06, $\xFF\x01\x06, $\xFF\x03\x08"
"eor\t$\xFF\x01\x0B, $\xFF\x01\x0B, $\xFF\x03\x04"
"EOT"
"ep9312"
"epilogue_begin"
"epsr"
"eq_os"
"eq_uq"
"eq_us"
"eq"
"equals-sign"
"eret$\xFF\x02\x01"
"ermsb"
"ERRIDR_EL1"
"error - option can never match, because another positional argument will match an unbounded number of values, and this option does not require a value!"
"error - this positional option will never be matched, because it does not Require a value, and a cl::ConsumeAfter option is active!"
"Error extracting index attribute values."
"error extracting location list."
"Error extracting the value"
"error: "
"error: couldn't initialize disassembler for target "
"error: invalid contribution to string offsets table in section ."
"error: invalid target '"
"error: overlapping contributions to string offsets table in section ."
"error: size of ."
"error: UUID load command is too short.\n"
"error"
"ERRSELR_EL1"
"ERXADDR_EL1"
"ERXCTLR_EL1"
"ERXFR_EL1"
"ERXMISC0_EL1"
"ERXMISC1_EL1"
"ERXMISC2_EL1"
"ERXMISC3_EL1"
"ERXPFGCDN_EL1"
"ERXPFGCTL_EL1"
"ERXPFGF_EL1"
"ERXSTATUS_EL1"
"ERXTS_EL1"
"es:["
"esb"
"esb$\xFF\x02\x01.w"
"esb$\xFF\x02\x01"
"ESC"
"ESR_EL1"
"ESR_EL12"
"ESR_EL2"
"ESR_EL3"
"ETB"
"ETX"
"exclamation-mark"
"execute-only"
"Executions"
"Expand VFP/NEON MLA/MLS instructions"
"expand-fp-mlx"
"Expect function block"
"Expect SubBlock"
"expected '(' after operator"
"expected ')' in parentheses expression"
"expected ')'"
"expected ']' in brackets expression"
"expected '@<type>', '%<type>' or \"<type>\""
"expected '%<type>' or \"<type>\""
"expected '=' after formal parameter identifier"
"expected 'inlined_at' identifier in '.cv_inline_site_id' directive"
"expected 'unique'"
"expected 'within' identifier in '.cv_inline_site_id' directive"
"expected @code"
"expected @unwind or @except"
"expected a '@' in the name"
"expected a comma"
"Expected a constant"
"expected a Function or null"
"expected a MDNode triple"
"expected a symbol reference"
"expected absolute expression"
"Expected an identifier"
"expected an integer constant"
"Expected ARM_RELOC_PAIR after ARM_RELOC_HALF"
"expected assembly-time absolute expression"
"expected checksum kind in '.cv_file' directive"
"expected comdat type such as 'discard' or 'largest' after protection bits"
"expected comma after first string for '.ifeqs' directive"
"expected comma after first string for '.ifnes' directive"
"expected comma in '.irp' directive"
"expected comma in '.irpc' directive"
"expected comma in directive"
"expected comma"
"expected commma"
"expected double quoted string after .print"
"expected end of statement in '.warning' directive"
"expected end of statement"
"Expected exactly one funclet bundle operand"
"Expected exactly two ptrauth bundle operand"
"expected file number in '.cv_file' directive"
"expected function id in '"
"expected function id within range [0, UINT_MAX)"
"Expected GENERIC_RELOC_PAIR after GENERIC_RELOC_LOCAL_SECTDIFF."
"Expected GENERIC_RELOC_PAIR after GENERIC_RELOC_SECTDIFF."
"expected group name"
"expected identifier after '.ifdef'"
"expected identifier after '.section' directive"
"expected identifier in .indirect_symbol directive"
"expected identifier in '.addrsig_sym' directive"
"expected identifier in '.irp' directive"
"expected identifier in '.irpc' directive"
"expected identifier in '.macro' directive"
"expected identifier in '.purgem' directive"
"expected identifier in directive"
"expected identifier"
"expected integer argument to function_entry_count"
"expected integer count in '.cg_profile' directive"
"expected integer in '"
"expected line number after 'inlined_at'"
"Expected mangling specifier in datalayout string"
"expected metadata symbol"
"Expected no forward declarations!"
"expected region type after '.data_region' directive"
"expected relocatable expression"
"expected relocation name"
"expected section directive before assembly directive"
"expected section name after comma in '.zerofill' directive"
"expected segment name after '.zerofill' directive"
"expected SourceField in '.cv_inline_linetable' directive"
"expected SourceLineNum in '.cv_inline_linetable' directive"
"expected string in '.dump' or '.load' directive"
"expected string in '.incbin' directive"
"expected string in '.include' directive"
"expected string in '"
"expected string in directive"
"expected string parameter for '.ifeqs' directive"
"expected string parameter for '.ifnes' directive"
"expected string with name of the !prof annotation"
"expected string"
"expected STT_<TYPE_IN_UPPER_CASE>, '#<type>', '@<type>', '%<type>' or \"<type>\""
"expected STT_<TYPE_IN_UPPER_CASE>, '#<type>', '%<type>' or \"<type>\""
"expected symbol name"
"expected symbol type in directive"
"expected symbol variant after '@'"
"expected the entry size"
"Expected token before separator in datalayout string"
"Expected valid value"
"Expected value type does not match pointer operand type!"
"Expected X86_64_RELOC_UNSIGNED after X86_64_RELOC_SUBTRACTOR."
"experimental_deoptimize cannot be invoked"
"experimental_deoptimize must have exactly one \"deopt\" operand bundle"
"experimental_deoptimize return type must match caller return type"
"experimental_guard cannot be invoked"
"experimental_guard must have exactly one \"deopt\" operand bundle"
"Explicit call type does not match pointee type of callee operand"
"Explicit call type is not a function type"
"Explicit gep operator type does not match pointee type of pointer operand"
"Explicit gep type does not match pointee type of pointer operand"
"Explicit invoke type does not match pointee type of callee operand"
"Explicit invoke type is not a function type"
"Explicit load/store type does not match pointee type of pointer operand"
"explicit path specified, but no file number"
"export info size "
"export info size: 0x"
"Export section ended prematurely"
"Export Table:\n"
"export_off field of "
"export_off field plus export_size field of "
"EXPORT"
"Exports trie:\n"
"exports-trie"
"exportSymbols"
"Expr:("
"expr"
"expression is negative"
"expression is not a constant value"
"expression must be relocatable"
"external "
"External Int32"
"external relocation entry for symbol:"
"External relocation information "
"external relocation table"
"EXTERNAL"
"externally_initialized "
"extract"
"extractelement"
"EXTRACTVAL: Invalid array index"
"EXTRACTVAL: Invalid instruction with 0 indices"
"EXTRACTVAL: Invalid struct index"
"EXTRACTVAL: Invalid type"
"extractvalue"
"extraData"
"extrefsymoff field of LC_DYSYMTAB command "
"extrefsymoff field plus nextrefsyms field times sizeof(struct dylib_reference) of LC_DYSYMTAB command "
"extreloff field of LC_DYSYMTAB command "
"extreloff field plus nextrel field times sizeof(struct relocation_info) of LC_DYSYMTAB command "
"exynos-cheap-as-move"
"exynos-m1"
"exynos-m2"
"exynos-m3"
"exynos-m4"
"exynosm1"
"exynosm2"
"exynosm3"
"f_"
"f"
"f128"
"f16"
"f16c"
"f32"
"f64"
"f80"
"fadd"
"failed to compute relocation: "
"failed to compute symbol address: "
"failed to consume entire .debug_loc section\n"
"failed to decompress '"
"failed to get symbol section: "
"falkor"
"FalkorUnitB"
"FalkorUnitGTOV"
"FalkorUnitLD"
"FalkorUnitSD"
"FalkorUnitST"
"FalkorUnitVSD"
"FalkorUnitVTOG"
"FalkorUnitVX"
"FalkorUnitVXVY"
"FalkorUnitVY"
"FalkorUnitX"
"FalkorUnitXY"
"FalkorUnitXYZ"
"FalkorUnitXYZB"
"FalkorUnitY"
"FalkorUnitZ"
"FalkorUnitZB"
"False     "
"False  "
"False "
"false_os"
"false-deps-lzcnt-tzcnt"
"false-deps-popcnt"
"false"
"FAR_EL1"
"FAR_EL12"
"FAR_EL2"
"FAR_EL3"
"Fast math flags indicator set for call with no FMF"
"fast-11bytenop"
"fast-15bytenop"
"fast-gather"
"fast-lzcnt"
"Fast-math-flags specified for call without floating-point scalar or vector return type"
"fast-partial-ymm-or-zmm-write"
"fast-scalar-fsqrt"
"fast-shld-rotate"
"fast-variable-shuffle"
"fast-vector-fsqrt"
"fastcc"
"fat file does not contain "
"Fat headers\n"
"fat_arch"
"fat_magic "
"fat_magic FAT_MAGIC_64\n"
"fat_magic FAT_MAGIC\n"
"Fault kind: "
"fault-map-section"
"FaultingLoad"
"FaultingLoadStore"
"FaultingStore"
"FaultMap table:\n"
"faultmask_ns"
"faultmask"
"fcmp"
"fdiv"
"fence instructions may only have acquire, release, acq_rel, or seq_cst ordering."
"fence"
"FF"
"file 0 not supported prior to DWARF-5"
"File id less than zero in '.cv_inline_linetable' directive"
"file number already allocated"
"file number less than one in '.loc' directive"
"file number less than one in '"
"file number less than one"
"File to append -stats and -timer output to"
"File too small to be a Mach-O universal file"
"File too small to be a resource file"
"File too small to be an archive"
"file_names[%3u]:\n"
"file-headers"
"file"
"FileAttributes"
"filechecksums_begin"
"filechecksums_end"
"filename"
"Filter operand is not an array of constants!"
"filter-print-funcs"
"FILTER"
"fini_array"
"FINI_ARRAYSZ"
"FINI"
"Finite Only"
"First atomicrmw operand must be a pointer."
"First cmpxchg operand must be a pointer."
"first operand should be 'function_entry_count' or 'synthetic_function_entry_count'"
"first operand should not be null"
"first"
"five"
"Fixed or VBR abbrev record with size > MaxChunkData"
"FIXME: relocations to absolute targets not yet implemented"
"fixup must be 16-byte aligned"
"fixup must be 2-byte aligned"
"fixup must be 4-byte aligned"
"fixup must be 8-byte aligned"
"fixup not sufficiently aligned"
"fixup value out of range"
"fixup_aarch64_add_imm12"
"fixup_aarch64_ldr_pcrel_imm19"
"fixup_aarch64_ldst_imm12_scale1"
"fixup_aarch64_ldst_imm12_scale16"
"fixup_aarch64_ldst_imm12_scale2"
"fixup_aarch64_ldst_imm12_scale4"
"fixup_aarch64_ldst_imm12_scale8"
"fixup_aarch64_movw"
"fixup_aarch64_pcrel_adr_imm21"
"fixup_aarch64_pcrel_adrp_imm21"
"fixup_aarch64_pcrel_branch14"
"fixup_aarch64_pcrel_branch19"
"fixup_aarch64_pcrel_branch26"
"fixup_aarch64_pcrel_call26"
"fixup_aarch64_tlsdesc_call"
"fixup_arm_adr_pcrel_12"
"fixup_arm_blx"
"fixup_arm_condbl"
"fixup_arm_condbranch"
"fixup_arm_ldst_pcrel_12"
"fixup_arm_mod_imm"
"fixup_arm_movt_hi16"
"fixup_arm_movw_lo16"
"fixup_arm_pcrel_10_unscaled"
"fixup_arm_pcrel_10"
"fixup_arm_pcrel_9"
"fixup_arm_thumb_bcc"
"fixup_arm_thumb_bl"
"fixup_arm_thumb_blx"
"fixup_arm_thumb_br"
"fixup_arm_thumb_cb"
"fixup_arm_thumb_cp"
"fixup_arm_uncondbl"
"fixup_arm_uncondbranch"
"fixup_t2_adr_pcrel_12"
"fixup_t2_condbranch"
"fixup_t2_ldst_pcrel_12"
"fixup_t2_movt_hi16"
"fixup_t2_movw_lo16"
"fixup_t2_pcrel_10"
"fixup_t2_pcrel_9"
"fixup_t2_so_imm"
"fixup_t2_uncondbranch"
"fixup_thumb_adr_pcrel_10"
"fixupReg()"
"FK_Data_1"
"FK_Data_2"
"FK_Data_4"
"FK_Data_8"
"FK_Data_Add_1"
"FK_Data_Add_2"
"FK_Data_Add_4"
"FK_Data_Add_8"
"FK_Data_Sub_1"
"FK_Data_Sub_2"
"FK_Data_Sub_4"
"FK_Data_Sub_8"
"FK_DTPRel_4"
"FK_DTPRel_8"
"FK_GPRel_1"
"FK_GPRel_2"
"FK_GPRel_4"
"FK_GPRel_8"
"FK_PCRel_1"
"FK_PCRel_2"
"FK_PCRel_4"
"FK_PCRel_8"
"FK_SecRel_1"
"FK_SecRel_2"
"FK_SecRel_4"
"FK_SecRel_8"
"FK_TPRel_4"
"FK_TPRel_8"
"flags "
"FLAGS_1"
"flags"
"flat-namespace"
"flavor in "
"float"
"Floating point unit supports single precision only"
"Floating-point arithmetic operators must have same type for operands and result!"
"Floating-point arithmetic operators only work with floating-point types!"
"Flush A Cache Line Optimized"
"fma.vfmadd."
"fma.vfmaddsub."
"fma.vfmaddsub.p"
"fma.vfmsub."
"fma.vfmsubadd."
"fma.vfmsubadd.p"
"fma"
"fma4.vfmadd.s"
"fma4"
"fmov $\xFF\x01\t, #0.0"
"fmov $\xFF\x01\t, $\xFF\x02\x1F"
"fmov $\xFF\x01\t, $\xFF\x03\x07/m, $\xFF\x04\x1F"
"fmov $\xFF\x01\x0B, #0.0"
"fmov $\xFF\x01\x0B, $\xFF\x02\x1F"
"fmov $\xFF\x01\x0B, $\xFF\x03\x07/m, $\xFF\x04\x1F"
"fmov $\xFF\x01\x10, #0.0"
"fmov $\xFF\x01\x10, $\xFF\x02\x1F"
"fmov $\xFF\x01\x10, $\xFF\x03\x07/m, $\xFF\x04\x1F"
"fmul"
"for "
"For (__LLVM,__bundle) section: "
"for BIND_OPCODE_ADD_ADDR_ULEB "
"for BIND_OPCODE_ADD_ADDR_ULEB (after adding ULEB) "
"for BIND_OPCODE_DO_BIND "
"for BIND_OPCODE_DO_BIND missing preceding BIND_OPCODE_SET_DYLIB_ORDINAL_* for opcode at: 0x"
"for BIND_OPCODE_DO_BIND missing preceding BIND_OPCODE_SET_SYMBOL_TRAILING_FLAGS_IMM for opcode at: 0x"
"for BIND_OPCODE_DO_BIND_ADD_ADDR_IMM_SCALED  (after adding immediate times the pointer size) "
"for BIND_OPCODE_DO_BIND_ADD_ADDR_IMM_SCALED "
"for BIND_OPCODE_DO_BIND_ADD_ADDR_IMM_SCALED missing preceding BIND_OPCODE_SET_DYLIB_ORDINAL_* for opcode at: 0x"
"for BIND_OPCODE_DO_BIND_ADD_ADDR_IMM_SCALED missing preceding BIND_OPCODE_SET_SYMBOL_TRAILING_FLAGS_IMM for opcode at: 0x"
"for BIND_OPCODE_DO_BIND_ADD_ADDR_ULEB "
"for BIND_OPCODE_DO_BIND_ADD_ADDR_ULEB missing preceding BIND_OPCODE_SET_DYLIB_ORDINAL_* for opcode at: 0x"
"for BIND_OPCODE_DO_BIND_ADD_ADDR_ULEB missing preceding BIND_OPCODE_SET_SYMBOL_TRAILING_FLAGS_IMM for opcode at: 0x"
"for BIND_OPCODE_DO_BIND_ULEB_TIMES_SKIPPING_ULEB  (count value) "
"for BIND_OPCODE_DO_BIND_ULEB_TIMES_SKIPPING_ULEB "
"for BIND_OPCODE_DO_BIND_ULEB_TIMES_SKIPPING_ULEB (skip value) "
"for BIND_OPCODE_DO_BIND_ULEB_TIMES_SKIPPING_ULEB missing preceding BIND_OPCODE_SET_DYLIB_ORDINAL_* for opcode at: 0x"
"for BIND_OPCODE_DO_BIND_ULEB_TIMES_SKIPPING_ULEB missing preceding BIND_OPCODE_SET_SYMBOL_TRAILING_FLAGS_IMM for opcode at: 0x"
"for BIND_OPCODE_SET_ADDEND_SLEB "
"for BIND_OPCODE_SET_DYLIB_ORDINAL_IMM bad library ordinal: "
"for BIND_OPCODE_SET_DYLIB_ORDINAL_ULEB "
"for BIND_OPCODE_SET_DYLIB_ORDINAL_ULEB bad library ordinal: "
"for BIND_OPCODE_SET_DYLIB_SPECIAL_IMM unknown special ordinal: "
"for BIND_OPCODE_SET_SEGMENT_AND_OFFSET_ULEB "
"for BIND_OPCODE_SET_SYMBOL_TRAILING_FLAGS_IMM symbol name extends past opcodes for opcode at: 0x"
"for BIND_OPCODE_SET_TYPE_IMM bad bind type: "
"for BIND_SUBOPCODE_THREADED_APPLY "
"for BIND_SUBOPCODE_THREADED_APPLY for opcode at: 0x"
"for BIND_SUBOPCODE_THREADED_SET_BIND_ORDINAL_TABLE_SIZE_ULEB "
"for REBASE_OPCODE_ADD_ADDR_IMM_SCALED "
"for REBASE_OPCODE_ADD_ADDR_IMM_SCALED (after adding immediate times the pointer size) "
"for REBASE_OPCODE_ADD_ADDR_ULEB "
"for REBASE_OPCODE_DO_REBASE_ADD_ADDR_ULEB "
"for REBASE_OPCODE_DO_REBASE_IMM_TIMES "
"for REBASE_OPCODE_DO_REBASE_ULEB_TIMES "
"for REBASE_OPCODE_DO_REBASE_ULEB_TIMES_SKIPPING_ULEB "
"for REBASE_OPCODE_SET_SEGMENT_AND_OFFSET_ULEB "
"for REBASE_OPCODE_SET_TYPE_IMM bad bind type: "
"Force disable the lazy-loading on-demand of metadata when loading bitcode for importing."
"Foreign TU count"
"Foreign Type Unit signatures"
"ForeignTU[%u]: 0x%016llx\n"
"form-feed"
"Form: "
"Found a 3dnow escape prefix (0x%hhx)"
"Found a three-byte escape prefix (0x%hhx)"
"Found a two-byte escape prefix (0x%hhx)"
"Found EVEX prefix 0x%hhx 0x%hhx 0x%hhx 0x%hhx"
"Found prefix 0x%hhx"
"Found return instr that returns non-void in Function of void return type!"
"Found REX prefix 0x%hhx"
"Found VEX prefix 0x%hhx 0x%hhx 0x%hhx"
"Found VEX prefix 0x%hhx 0x%hhx"
"Found XOP prefix 0x%hhx 0x%hhx 0x%hhx"
"four"
"FP compare + branch is slow"
"FP_CHOP "
"FP_PREC_24B "
"FP_PREC_53B "
"FP_PREC_64B "
"FP_RND_DOWN "
"FP_RND_NEAR "
"FP_RND_UP "
"fp-armv8"
"fp-only-sp"
"fp"
"fp128"
"fp16"
"fpao"
"FPCR"
"FPEXC32_EL2"
"fpexcept.ignore"
"fpexcept.strict"
"FPExt only operates on FP"
"FPExt only produces an FP"
"fpext source and destination must both be a vector or neither"
"fpext"
"FPImm:"
"fpmath accuracy must have float type"
"fpmath accuracy not a positive number!"
"fpmath requires a floating point result!"
"fpmath takes one operand!"
"FPSR"
"FPToSI result must be integer or integer vector"
"FPToSI source and dest must both be vector or scalar"
"FPToSI source and dest vector length mismatch"
"FPToSI source must be FP or FP vector"
"fptosi"
"FPToUI result must be integer or integer vector"
"FPToUI source and dest must both be vector or scalar"
"FPToUI source and dest vector length mismatch"
"FPToUI source must be FP or FP vector"
"fptoui"
"FPTrunc only operates on FP"
"FPTrunc only produces an FP"
"fptrunc source and destination must both be a vector or neither"
"fptrunc"
"fpv4-sp-d16"
"fpv5-d16"
"fpv5-sp-d16"
"Fragment can't be larger than a bundle size"
"fragment covers entire variable"
"fragment is larger than or outside of variable"
"frame offset must be less than or equal to 240"
"frame register and offset can be set at most once"
"frames"
"freebsd"
"frem"
"FS"
"fsgsbase"
"fsh.count "
"fsh.count x86_FLOAT_STATE64_COUNT\n"
"fsub"
"fuchsia"
"Full FP16"
"full-leading-addr"
"full-stop"
"FullDebug"
"fullfp16"
"Funclet bundle operands should correspond to a FuncletPadInst"
"FuncletPadInst must not be nested within itself"
"function !dbg attachment must be a subprogram"
"Function arguments must have first-class types!"
"Function context does not match Module context!"
"function declaration may not have a !dbg attachment"
"function declaration may not have a !prof attachment"
"Function declaration shouldn't have a personality routine"
"Function has metadata parameter but isn't an intrinsic"
"Function has token parameter but isn't an intrinsic"
"function id already allocated"
"function id not introduced by .cv_func_id or .cv_inline_site_id"
"Function in two COMDATs"
"function must have a single !dbg attachment"
"function must have a single !prof attachment"
"Function named more than once"
"function names"
"function offset="
"Function return type does not match operand type of return inst!"
"Function section ended prematurely"
"function starts data"
"Function Table:\n"
"Function takes metadata but isn't an intrinsic"
"Function takes token but isn't an intrinsic"
"function-local metadata not in basic block"
"function-local metadata used in wrong function"
"function-local metadata used outside a function"
"Function"
"FunctionAddress: "
"Functions cannot return aggregate values!"
"Functions may not have common linkage"
"Functions returns a token but isn't an intrinsic"
"fuse-address"
"fuse-aes"
"fuse-crypto-eor"
"fuse-csel"
"fuse-literals"
"fxsr"
"g"
"gc relocate is incorrectly tied to the statepoint"
"gc relocate should be linked to a statepoint"
"gc.relocate connected to wrong gc.statepoint"
"gc.relocate must return a pointer or a vector of pointers"
"gc.relocate operand #2 must be integer offset"
"gc.relocate operand #3 must be integer offset"
"gc.relocate: relocated value must be a gc pointer"
"gc.relocate: relocating a pointer shouldn't change its address space"
"gc.relocate: statepoint base index doesn't fall within the 'gc parameters' section of the statepoint call"
"gc.relocate: statepoint base index out of bounds"
"gc.relocate: statepoint derived index doesn't fall within the 'gc parameters' section of the statepoint call"
"gc.relocate: statepoint derived index out of bounds"
"gc.relocate: vector relocates to vector and pointer to pointer"
"gc.result connected to wrong gc.statepoint"
"gc.result operand #1 must be from a statepoint"
"gc.result or gc.relocate are the only value uses of a gc.statepoint"
"gc.result result type does not match wrapped callee"
"gc.statement: number of call arguments must be constant integer"
"gc.statepoint call argument does not match wrapped function type"
"gc.statepoint callee must be of function pointer type"
"gc.statepoint doesn't support wrapping non-void vararg functions yet"
"gc.statepoint flags must be constant integer"
"gc.statepoint ID must be a constant integer"
"gc.statepoint mismatch in number of call args"
"gc.statepoint mismatch in number of vararg call args"
"gc.statepoint must read and write all memory to preserve reordering restrictions required by safepoint semantics"
"gc.statepoint number of arguments to underlying call must be constant integer"
"gc.statepoint number of arguments to underlying call must be positive"
"gc.statepoint number of deoptimization arguments must be constant integer"
"gc.statepoint number of deoptimization arguments must be positive"
"gc.statepoint number of patchable bytes must be a constant integer"
"gc.statepoint number of patchable bytes must be positive"
"gc.statepoint number of transition arguments must be constant integer"
"gc.statepoint number of transition arguments must be positive"
"gc.statepoint support for inline assembly unimplemented"
"gc.statepoint too few arguments according to length fields"
"gc.statepoint: insufficient arguments"
"gc.statepoint: mismatch in number of call arguments"
"gc.statepoint: number of deoptimization arguments must be a constant integer"
"gc.statepoint: number of transition arguments must be a constant integer"
"GDGOT"
"GDPLT"
"ge_oq"
"ge"
"General options"
"Generate calls via indirect call instructions"
"Generic Options"
"GENERIC_RELOC_LOCAL_SECTDIFF"
"GENERIC_RELOC_PAIR"
"GENERIC_RELOC_PB_LA_PTR"
"GENERIC_RELOC_SECTDIFF"
"GENERIC_RELOC_TLV"
"GENERIC_RELOC_VANILLA"
"generic"
"geode"
"GEP base pointer is not a vector or a vector of pointers"
"GEP indexes must be integers"
"GEP into unsized type!"
"GEP is not of right type for indices!"
"getelementptr"
"getID()"
"getSymbolIndex() called with no symbol table symbol"
"getter"
"gfni"
"ghccc"
"glm"
"global "
"global doesn't have an initializer"
"global doesn't have type '{ i8*, i32, i64, i64 }'"
"Global is external, but doesn't have external or weak linkage!"
"Global is marked as dllimport, but not external"
"Global is referenced by parentless instruction!"
"Global is referenced in a different module!"
"Global is used by function in a different module"
"global isn't a struct"
"global isn't in section \"llvm.ptrauth\""
"Global section ended prematurely"
"Global variable initializer type does not match global variable type!"
"GLOBAL"
"globals"
"GlobalValue with DLLImport Storage is dso_local!"
"GlobalValue with non default visibility must be dso_local!"
"GlobalValue with private or internal linkage must be dso_local!"
"glp"
"gnu_debuglink"
"GNU_HASH"
"gnu_indirect_function"
"gnu"
"gnuabi64"
"gnuabin32"
"gnueabi"
"gnueabihf"
"gnuPubnames"
"gnux32"
"goldmont-plus"
"goldmont"
"GOT     "
"GOT_LD  "
"GOT_PREL"
"GOT-Indirect"
"GOT"
"got@dtprel"
"got@dtprel@h"
"got@dtprel@ha"
"got@dtprel@l"
"got@h"
"got@ha"
"got@l"
"got@tlsgd"
"got@tlsgd@h"
"got@tlsgd@ha"
"got@tlsgd@l"
"got@tlsld"
"got@tlsld@h"
"got@tlsld@ha"
"got@tlsld@l"
"got@tprel"
"got@tprel@h"
"got@tprel@ha"
"got@tprel@l"
"GOTLDP  "
"GOTLDPOF"
"GOTNTPOFF"
"GOTOFF"
"gotpage"
"GOTPAGEOFF"
"GOTPCREL"
"gotpcrel32@hi"
"gotpcrel32@lo"
"GOTREL"
"GOTTPOFF"
"GPREL"
"gpu_32"
"gpu_64"
"graph"
"grave-accent"
"greater-than-sign"
"Group section must specify the type"
"group"
"GS"
"gt_oq"
"gt"
"guard variable for "
"h"
"h2f"
"ha"
"HACR_EL2"
"haiku"
"HALF    "
"half"
"HALFDIF "
"Has data barrier (dmb/dsb) instructions"
"Has full data barrier (dfb) instruction"
"Has multiplier accumulator forwarding"
"Has muxed AGU and NEON/FPU"
"Has no branch predictor"
"Has return address stack"
"Has slow VDUP32 - prefer VMOV"
"Has slow VGETLNi32 - prefer VMOV"
"Has v7 clrex instruction"
"Has v8 acquire/release (lda/ldaex  etc) instructions"
"Has VMLx hazards"
"Has zero-cycle register moves"
"Has zero-cycle zeroing instructions"
"Hash 0x"
"Hash function"
"Hash table not present\n"
"Hash"
"Hash[%d] has invalid HashData offset: 0x%08x.\n"
"Hashes count"
"haswell"
"HCR_EL2"
"header"
"HeaderData length"
"headers"
"help-hidden"
"help-list-hidden"
"help-list"
"help"
"HEXAGON_PLT"
"HEXAGON_SYMSZ"
"HEXAGON_VER"
"hexagon"
"hhvm_ccc"
"hhvmcc"
"hi"
"hi/"
"HI16"
"hi8"
"hidden "
"high"
"higha"
"higher"
"highera"
"highest"
"highesta"
"hlo8"
"Hotness"
"HPFAR_EL2"
"hs"
"hsail"
"hsail64"
"HSTR_EL2"
"HT"
"huge alignment values are unsupported"
"hurricane"
"hwdiv-arm"
"hwdiv"
"HWDivider"
"HWFPDivider"
"HWPort0"
"HWPort01"
"HWPort015"
"HWPort0156"
"HWPort04"
"HWPort05"
"HWPort056"
"HWPort06"
"HWPort1"
"HWPort15"
"HWPort16"
"HWPort2"
"HWPort23"
"HWPort237"
"HWPort3"
"HWPort4"
"HWPort5"
"HWPort56"
"HWPort6"
"HWPort7"
"HWPortAny"
"hyphen-minus"
"hyphen"
"i"
"i386-apple-darwin"
"i386"
"i486"
"i586"
"i686"
"IA"
"IALLU"
"IALLUIS"
"iapsr_g"
"iapsr_nzcvq"
"iapsr_nzcvqg"
"iapsr"
"IB"
"ic\t"
"ICC_AP0R0_EL1"
"ICC_AP0R1_EL1"
"ICC_AP0R2_EL1"
"ICC_AP0R3_EL1"
"ICC_AP1R0_EL1"
"ICC_AP1R1_EL1"
"ICC_AP1R2_EL1"
"ICC_AP1R3_EL1"
"ICC_ASGI1R_EL1"
"ICC_BPR0_EL1"
"ICC_BPR1_EL1"
"ICC_CTLR_EL1"
"ICC_CTLR_EL3"
"ICC_DIR_EL1"
"ICC_EOIR0_EL1"
"ICC_EOIR1_EL1"
"ICC_HPPIR0_EL1"
"ICC_HPPIR1_EL1"
"ICC_IAR0_EL1"
"ICC_IAR1_EL1"
"ICC_IGRPEN0_EL1"
"ICC_IGRPEN1_EL1"
"ICC_IGRPEN1_EL3"
"ICC_PMR_EL1"
"ICC_RPR_EL1"
"ICC_SEIEN_EL1"
"ICC_SGI0R_EL1"
"ICC_SGI1R_EL1"
"ICC_SRE_EL1"
"ICC_SRE_EL2"
"ICC_SRE_EL3"
"icelake-client"
"icelake-server"
"ICH_AP0R0_EL2"
"ICH_AP0R1_EL2"
"ICH_AP0R2_EL2"
"ICH_AP0R3_EL2"
"ICH_AP1R0_EL2"
"ICH_AP1R1_EL2"
"ICH_AP1R2_EL2"
"ICH_AP1R3_EL2"
"ICH_EISR_EL2"
"ICH_ELRSR_EL2"
"ICH_HCR_EL2"
"ICH_LR0_EL2"
"ICH_LR1_EL2"
"ICH_LR10_EL2"
"ICH_LR11_EL2"
"ICH_LR12_EL2"
"ICH_LR13_EL2"
"ICH_LR14_EL2"
"ICH_LR15_EL2"
"ICH_LR2_EL2"
"ICH_LR3_EL2"
"ICH_LR4_EL2"
"ICH_LR5_EL2"
"ICH_LR6_EL2"
"ICH_LR7_EL2"
"ICH_LR8_EL2"
"ICH_LR9_EL2"
"ICH_MISR_EL2"
"ICH_VMCR_EL2"
"ICH_VSEIR_EL2"
"ICH_VTR_EL2"
"icmp"
"ID_AA64AFR0_EL1"
"ID_AA64AFR1_EL1"
"ID_AA64DFR0_EL1"
"ID_AA64DFR1_EL1"
"ID_AA64ISAR0_EL1"
"ID_AA64ISAR1_EL1"
"ID_AA64MMFR0_EL1"
"ID_AA64MMFR1_EL1"
"ID_AA64MMFR2_EL1"
"ID_AA64PFR0_EL1"
"ID_AA64PFR1_EL1"
"ID_AFR0_EL1"
"ID_DFR0_EL1"
"ID_ISAR0_EL1"
"ID_ISAR1_EL1"
"ID_ISAR2_EL1"
"ID_ISAR3_EL1"
"ID_ISAR4_EL1"
"ID_ISAR5_EL1"
"ID_ISAR6_EL1"
"ID_MMFR0_EL1"
"ID_MMFR1_EL1"
"ID_MMFR2_EL1"
"ID_MMFR3_EL1"
"ID_MMFR4_EL1"
"ID_PFR0_EL1"
"ID_PFR1_EL1"
"id"
"identifier"
"idiv"
"idivl-to-divb"
"idivq-to-divl"
"idx argument of llvm.localrecover must be a constant int"
"ie"
"IEEE-754"
"IEGOT"
"iepsr"
"iextdefsym in LC_DYSYMTAB load command extends past the end of the symbol table"
"iextdefsym plus nextdefsym in LC_DYSYMTAB load command extends past the end of the symbol table"
"If Available"
"If present, PushMachFrame must be the first UOP"
"IFSR32_EL2"
"ifunc "
"igil32"
"igil64"
"ignoring debug info with an invalid version ("
"ignoring directive .dump for now"
"ignoring directive .load for now"
"ignoring invalid debug info in "
"ill-formed archive entry.\n"
"illegal use of statepoint token"
"ilocalsym in LC_DYSYMTAB load command extends past the end of the symbol table"
"ilocalsym plus nlocalsym in LC_DYSYMTAB load command extends past the end of the symbol table"
"ILP32 4 byte checked GOT load/store relocation not supported (unchecked eqv: LD32_GOT_LO12_NC)"
"ILP32 64-bit load/store relocation not supported (LP64 eqv: LD64_GOT_LO12_NC)"
"ILP32 64-bit load/store relocation not supported (LP64 eqv: TLSDESC_LD64_LO12)"
"ILP32 64-bit load/store relocation not supported (LP64 eqv: TLSIE_LD64_GOTTPREL_LO12_NC)"
"ILP32 8 byte absolute data relocation not supported (LP64 eqv: ABS64)"
"ILP32 8 byte PC relative data relocation not supported (LP64 eqv: PREL64)"
"ILP32 absolute MOV relocation not supported (LP64 eqv: MOVW_SABS_G1)"
"ILP32 absolute MOV relocation not supported (LP64 eqv: MOVW_SABS_G2)"
"ILP32 absolute MOV relocation not supported (LP64 eqv: MOVW_UABS_G1_NC)"
"ILP32 absolute MOV relocation not supported (LP64 eqv: MOVW_UABS_G2_NC)"
"ILP32 absolute MOV relocation not supported (LP64 eqv: MOVW_UABS_G2)"
"ILP32 absolute MOV relocation not supported (LP64 eqv: MOVW_UABS_G3)"
"ILP32 absolute MOV relocation not supported (LP64 eqv: TLSIE_MOVW_GOTTPREL_G0_NC)"
"ILP32 absolute MOV relocation not supported (LP64 eqv: TLSIE_MOVW_GOTTPREL_G1)"
"ILP32 absolute MOV relocation not supported (LP64 eqv: TLSLD_MOVW_DTPREL_G1_NC)"
"ILP32 absolute MOV relocation not supported (LP64 eqv: TLSLD_MOVW_DTPREL_G2)"
"ILP32 absolute MOV relocation not supported (LP64 eqv: TLSLE_MOVW_TPREL_G1_NC)"
"ILP32 absolute MOV relocation not supported (LP64 eqv: TLSLE_MOVW_TPREL_G2)"
"IMAGE_REL_AMD64_ABSOLUTE"
"IMAGE_REL_AMD64_ADDR32"
"IMAGE_REL_AMD64_ADDR32NB"
"IMAGE_REL_AMD64_ADDR64"
"IMAGE_REL_AMD64_PAIR"
"IMAGE_REL_AMD64_REL32_1"
"IMAGE_REL_AMD64_REL32_2"
"IMAGE_REL_AMD64_REL32_3"
"IMAGE_REL_AMD64_REL32_4"
"IMAGE_REL_AMD64_REL32_5"
"IMAGE_REL_AMD64_REL32"
"IMAGE_REL_AMD64_SECREL"
"IMAGE_REL_AMD64_SECREL7"
"IMAGE_REL_AMD64_SECTION"
"IMAGE_REL_AMD64_SREL32"
"IMAGE_REL_AMD64_SSPAN32"
"IMAGE_REL_AMD64_TOKEN"
"IMAGE_REL_ARM_ABSOLUTE"
"IMAGE_REL_ARM_ADDR32"
"IMAGE_REL_ARM_ADDR32NB"
"IMAGE_REL_ARM_BLX11"
"IMAGE_REL_ARM_BLX23T"
"IMAGE_REL_ARM_BLX24"
"IMAGE_REL_ARM_BRANCH11"
"IMAGE_REL_ARM_BRANCH20T"
"IMAGE_REL_ARM_BRANCH24"
"IMAGE_REL_ARM_BRANCH24T"
"IMAGE_REL_ARM_MOV32A"
"IMAGE_REL_ARM_MOV32T"
"IMAGE_REL_ARM_SECREL"
"IMAGE_REL_ARM_SECTION"
"IMAGE_REL_ARM_TOKEN"
"IMAGE_REL_ARM64_ABSOLUTE"
"IMAGE_REL_ARM64_ADDR32"
"IMAGE_REL_ARM64_ADDR32NB"
"IMAGE_REL_ARM64_ADDR64"
"IMAGE_REL_ARM64_BRANCH14"
"IMAGE_REL_ARM64_BRANCH19"
"IMAGE_REL_ARM64_BRANCH26"
"IMAGE_REL_ARM64_PAGEBASE_REL21"
"IMAGE_REL_ARM64_PAGEOFFSET_12A"
"IMAGE_REL_ARM64_PAGEOFFSET_12L"
"IMAGE_REL_ARM64_REL21"
"IMAGE_REL_ARM64_SECREL_HIGH12A"
"IMAGE_REL_ARM64_SECREL_LOW12A"
"IMAGE_REL_ARM64_SECREL_LOW12L"
"IMAGE_REL_ARM64_SECREL"
"IMAGE_REL_ARM64_SECTION"
"IMAGE_REL_ARM64_TOKEN"
"IMAGE_REL_I386_ABSOLUTE"
"IMAGE_REL_I386_DIR16"
"IMAGE_REL_I386_DIR32"
"IMAGE_REL_I386_DIR32NB"
"IMAGE_REL_I386_REL16"
"IMAGE_REL_I386_REL32"
"IMAGE_REL_I386_SECREL"
"IMAGE_REL_I386_SECREL7"
"IMAGE_REL_I386_SECTION"
"IMAGE_REL_I386_SEG12"
"IMAGE_REL_I386_TOKEN"
"IMGREL"
"imm = 0x%hX\n"
"imm = 0x%llX\n"
"imm = 0x%X\n"
"Imm:"
"Immutability part of the struct tag metadata must be either 0 or 1"
"Immutability tag on struct tag metadata must be a constant"
"Import full type definitions for ThinLTO."
"import name of re-export in export trie data at node: 0x"
"Import section ended prematurely"
"import-full-type-definitions"
"IMPORT"
"imports"
"in '"
"In xar member "
"inalloca "
"inalloca argument for call has mismatched alloca"
"inalloca isn't on the last argument!"
"inalloca isn't on the last parameter!"
"INC and DEC instructions are slower than ADD and SUB"
"incb\t$\x01, $\xFF\x03\x0E"
"incb\t$\x01"
"incd\t$\x01, $\xFF\x03\x0E"
"incd\t$\x01"
"incd\t$\xFF\x01\x10, $\xFF\x03\x0E"
"incd\t$\xFF\x01\x10"
"inch\t$\x01, $\xFF\x03\x0E"
"inch\t$\x01"
"inch\t$\xFF\x01\t, $\xFF\x03\x0E"
"inch\t$\xFF\x01\t"
"include_directories[%3u] = "
"Included from "
"includePath"
"Incompatible argument and return types for 'returned' attribute"
"Incompatible epoch: Bitcode '"
"inconsistant export info size: 0x"
"inconsistency in registered CommandLine options"
"inconsistent use of embedded source"
"inconsistent use of MD5 checksums"
"Inconvertible error value. An error has occurred that could not be converted to a known std::error_code. Please file a bug."
"incorrect alignment of the destination argument"
"incorrect alignment of the source argument"
"Incorrect field entry in struct type node!"
"Incorrect number of arguments passed to called function!"
"incorrect number of operands in llvm.ident metadata"
"incorrect number of operands in module flag"
"Incorrectly terminated abbreviation table."
"Incorrectly terminated entry list."
"Incorrectly terminated list."
"incw\t$\x01, $\xFF\x03\x0E"
"incw\t$\x01"
"incw\t$\xFF\x01\x0B, $\xFF\x03\x0E"
"incw\t$\xFF\x01\x0B"
"index past the end of the symbol table"
"Index Signature         "
"indexed (0x%x) rangelist = "
"Indicates if gather is reasonably fast."
"indirect symbol not in a symbol pointer or stub section"
"Indirect symbols for ("
"indirect table"
"indirect-symbols"
"Indirectbr destinations must all have pointer type!"
"Indirectbr operand must have pointer type!"
"indirectbr"
"indirectsymoff field of LC_DYSYMTAB command "
"indirectsymoff field plus nindirectsyms field times sizeof(uint32_t) of LC_DYSYMTAB command "
"INDNTPOFF"
"indx %d srch %d\n"
"inf"
"infinity"
"info argument of llvm.coro.begin must refer to an initialized constant"
"info argument of llvm.coro.begin must refer to either a struct or an array"
"info_string"
"info-output-file"
"info-plist"
"INFO"
"init_array"
"INIT_ARRAYSZ"
"INIT"
"inlinable function call in a function with debug info must have a !dbg location"
"inlined-at should be a location"
"inlinedAt"
"inrange "
"Inserted value type doesn't match aggregate type"
"insertelement"
"INSERTVAL: Invalid array index"
"INSERTVAL: Invalid instruction with 0 indices"
"INSERTVAL: Invalid struct index"
"INSERTVAL: Invalid type"
"insertvalue"
"Inst:("
"instanceProperties "
"Instruction does not dominate all uses!"
"Instruction exceeds 15-byte limit"
"Instruction has a name, but provides a void value!"
"Instruction has bogus parent pointer!"
"Instruction has null operand!"
"Instruction not embedded in basic block!"
"Instruction operands must be first-class values!"
"Instruction referencing instruction not embedded in a basic block!"
"Instruction returns a non-scalar type!"
"Insufficient alignment"
"Insufficient function protos"
"Insufficient operands to call"
"insufficient space remaining in table for DW_RLE_base_address encoding at offset 0x%x"
"insufficient space remaining in table for DW_RLE_start_end encoding at offset 0x%x"
"int"
"Int32"
"Integer arithmetic operators must have same type for operands and result!"
"Integer arithmetic operators only work with integral types!"
"Intel Atom processors"
"Intel Broadwell processors"
"Intel Cannonlake processors"
"Intel Goldmont Plus processors"
"Intel Goldmont processors"
"Intel Haswell processors"
"Intel Icelake processors"
"Intel Icelake Server processors"
"Intel Knights Landing processors"
"Intel Silvermont processors"
"Intel Skylake processors"
"Intel Skylake Server processors"
"Intel Tremont processors"
"intel_ocl_bicc"
"intel"
"inteldialect "
"interposing"
"Intervals are contiguous"
"Intervals are not in order"
"Intervals are overlapping"
"Intrinsic functions should never be defined!"
"Intrinsic has incorrect argument type!"
"Intrinsic has incorrect return type!"
"Intrinsic has too few arguments!"
"Intrinsic name not mangled correctly for type arguments! Should be: "
"Intrinsic was not defined with variable arguments!"
"inttoptr not supported for non-integral pointers"
"IntToPtr result must be a pointer"
"IntToPtr source must be an integral"
"IntToPtr type mismatch"
"IntToPtr Vector width mismatch"
"inttoptr"
"invalid !dbg metadata attachment"
"invalid .org offset '"
"invalid '.comm' or '.lcomm' directive alignment, can't be less than zero"
"invalid '.comm' or '.lcomm' directive size, can't be less than zero"
"invalid '.rva' directive offset, can't be less than -2147483648 or greater than 2147483647"
"invalid '.secrel32' directive offset, can't be less than zero or greater than std::numeric_limits<uint32_t>::max()"
"invalid '.tbss' alignment, can't be lessthan zero"
"invalid '.tbss' directive size, can't be less thanzero"
"invalid '.zerofill' directive alignment, can't be less than zero"
"invalid '.zerofill' directive size, can't be less than zero"
"invalid "
"invalid %s list offset 0x%x"
"Invalid abbrev number"
"Invalid abbreviation."
"Invalid ABI alignment, must be a 16bit integer"
"Invalid ABI alignment, must be a power of 2"
"Invalid address range "
"invalid address size: %d"
"Invalid address space, must be a 24-bit integer"
"Invalid address space, must be a 24bit integer"
"invalid alignment value"
"invalid argument identifier for formal argument"
"invalid argument to regex routine"
"invalid arguments for constrained FP intrinsic"
"invalid arguments to llvm.prefetch"
"invalid assignment to '"
"invalid backreference number"
"invalid base type"
"invalid behavior operand in module flag (expected constant integer)"
"invalid behavior operand in module flag (unexpected constant)"
"invalid binary number"
"Invalid binary operation!"
"Invalid bit width, must be a 24bit integer"
"Invalid bitcast"
"Invalid bitcode signature"
"Invalid bitcode wrapper header"
"Invalid buffer"
"invalid bundle alignment size (expected between 0 and 30)"
"Invalid calling convention ID"
"Invalid cast"
"invalid character class"
"invalid character range"
"invalid checksum kind"
"invalid checksum length"
"invalid checksum"
"invalid collating element"
"Invalid COMDAT entry type"
"invalid compile unit"
"invalid composite elements"
"Invalid constant reference"
"Invalid constant type"
"invalid containing type"
"invalid data symbol index"
"invalid data symbol offset"
"invalid decimal number"
"invalid DIE reference "
"invalid e_phentsize"
"Invalid ELF class"
"Invalid ELF data"
"Invalid ELFCLASS!"
"invalid emission kind"
"invalid empty dynamic section"
"Invalid empty synchronization scope names block"
"Invalid encoding"
"invalid enum list"
"invalid enum type"
"invalid escape sequence (unrecognized character)"
"invalid exception behavior argument"
"invalid expression"
"Invalid extended CFI opcode"
"Invalid extractelement operands!"
"Invalid ExtractValueInst operands!"
"invalid file"
"invalid filename"
"invalid fixup for 128-bit load/store instruction"
"invalid fixup for 16-bit load/store instruction"
"invalid fixup for 32-bit load/store instruction fixup_aarch64_ldst_imm12_scale4"
"invalid fixup for 32-bit pcrel ADRP instruction VK_ABS VK_NC"
"invalid fixup for 64-bit load/store instruction"
"invalid fixup for 8-bit load/store instruction"
"invalid fixup for add (uimm12) instruction"
"invalid fixup for movz/movk instruction"
"invalid floating point literal"
"invalid fpmath accuracy!"
"Invalid function argument type"
"Invalid function comdat ID"
"Invalid function count"
"Invalid function export"
"Invalid function metadata: incoming forward references"
"Invalid function metadata: outgoing forward refs"
"invalid function symbol index"
"Invalid function symbol: "
"Invalid function type"
"Invalid GEP index vector width"
"Invalid gep with no operands"
"Invalid global export"
"invalid global symbol index"
"Invalid global variable comdat ID"
"invalid global variable list"
"invalid global variable ref"
"invalid group name"
"invalid hexadecimal floating-point constant: expected at least one exponent digit"
"invalid hexadecimal floating-point constant: expected at least one significand digit"
"invalid hexadecimal floating-point constant: expected exponent part 'p'"
"invalid hexdecimal number"
"invalid ID operand in module flag (expected metadata string)"
"Invalid ID"
"invalid imported entity list"
"invalid imported entity ref"
"invalid imported entity"
"Invalid index size of 0 bytes"
"Invalid indices for GEP pointer type!"
"Invalid init_expr"
"Invalid insertelement operands!"
"Invalid InsertValueInst operands!"
"Invalid instruction with no BB"
"invalid linkage for intrinsic global variable"
"invalid linkage"
"invalid llvm.dbg."
"invalid llvm.dbg.declare intrinsic call 1"
"invalid llvm.ptrauth global: "
"invalid llvm.used member"
"invalid local scope"
"invalid macinfo type"
"invalid macro list"
"invalid macro ref"
"Invalid matrix dimensions"
"Invalid metadata attachment"
"invalid metadata symbol"
"Invalid metadata: fwd refs into function blocks"
"invalid modifier '"
"Invalid multiple blocks"
"Invalid multiple synchronization scope names blocks"
"Invalid name entry"
"invalid number of bytes"
"invalid number"
"invalid octal escape sequence (out of range)"
"invalid octal number"
"Invalid opcode in init_expr"
"Invalid operand for global metadata!"
"Invalid operand types for FCmp instruction"
"Invalid operand types for ICmp instruction"
"Invalid operands for select instruction!"
"invalid option for '.bundle_lock' directive"
"invalid OS update specifier, comma expected"
"Invalid pointer size of 0 bytes"
"invalid pointer to member type"
"Invalid predicate in FCmp instruction!"
"Invalid predicate in ICmp instruction!"
"Invalid preferred alignment, must be a 16bit integer"
"Invalid preferred alignment, must be a power of 2"
"Invalid primary CFI opcode"
"invalid range list entry at offset 0x%x"
"invalid range list offset 0x%x"
"invalid range list table index %d"
"invalid reassignment of non-absolute variable '"
"Invalid record: metadata strings bad length"
"Invalid record: metadata strings corrupt offset"
"Invalid record: metadata strings layout"
"Invalid record: metadata strings truncated chars"
"Invalid record: metadata strings with no strings"
"Invalid record: Unsupported version of DISubrange"
"Invalid record"
"invalid reference flags"
"Invalid regular expression '"
"invalid regular expression"
"Invalid relocation in __compact_unwind section\n"
"Invalid relocation on conditional branch!"
"invalid repetition count(s)"
"invalid requirement on flag, flag does not have the required value"
"invalid requirement on flag, flag is not present in module"
"invalid retained nodes list"
"invalid retained nodes, expected DILocalVariable or DILabel"
"invalid retained type list"
"invalid retained type"
"invalid rounding mode argument"
"invalid scope for imported entity"
"invalid scope ref"
"invalid scope"
"invalid section contents size"
"invalid section header entry size (e_shentsize) in ELF header"
"invalid section index"
"invalid section offset"
"Invalid segment size"
"invalid sh_entsize"
"invalid sh_type for string table, expected SHT_STRTAB"
"invalid sh_type for symbol table, expected SHT_SYMTAB or SHT_DYNSYM"
"invalid sh_type"
"Invalid shufflevector operands!"
"Invalid signature type"
"Invalid start function"
"invalid static data member declaration"
"invalid string offset"
"Invalid struct return type!"
"invalid subprogram declaration"
"invalid subrange count"
"invalid subroutine type ref"
"invalid subroutine type"
"invalid symbol kind for ADRP relocation"
"invalid symbol redefinition"
"Invalid symbol type"
"Invalid table element type"
"Invalid TableIndex"
"invalid tag"
"invalid template parameter"
"invalid template params"
"invalid thrown type"
"invalid thrown types list"
"invalid token in expression"
"Invalid type for value"
"invalid type ref"
"Invalid TYPE table: Only named structs can be forward referenced"
"Invalid TYPE table"
"Invalid type"
"invalid unit type"
"Invalid use of metadata!"
"invalid use of pseudo-symbol '.' as a label"
"Invalid user of intrinsic instruction!"
"invalid value for 'append'-type module flag (expected a metadata node)"
"invalid value for 'max' module flag (expected constant integer)"
"invalid value for 'require' module flag (expected metadata pair)"
"invalid value for 'require' module flag (first value operand should be a string)"
"invalid value for llvm.ident metadata entry operand(the operand should be a string)"
"invalid value for this fixup"
"Invalid value name"
"Invalid value"
"invalid variant '"
"invalid variant on expression '"
"Invalid vector length"
"invalid vector, expected one element of type subrange"
"invalid vtable holder"
"invalid"
"Invalid/Unsupported object file format"
"Invalidate Process-Context Identifier"
"InvalidRegisterFile"
"InvalidUnit"
"invariant.end"
"invariant.group.barrier"
"invariant.start"
"invocation function for block in "
"invoke"
"invpcid"
"IO failure on output stream: "
"ios"
"iostream"
"IPAS2E1"
"IPAS2E1IS"
"IPAS2E1OS"
"IPAS2LE1"
"IPAS2LE1IS"
"IPAS2LE1OS"
"ipsr"
"Is application profile ('A' series)"
"Is microcontroller profile ('M' series)"
"Is profitable to unpredicate"
"Is realtime profile ('R' series)"
"is_stmt value not 0 or 1"
"is_stmt value not the constant value of 0 or 1"
"is_stmt"
"is_zero_undef argument of bit counting intrinsics must be a constant int"
"IS1"
"IS2"
"IS3"
"IS4"
"isa number less than zero"
"isa number not a constant value"
"isb"
"isDefinition"
"ish"
"ishld"
"ishst"
"isLocal"
"isOptimized"
"ISR_EL1"
"istream"
"isUnsigned"
"isVoid"
"isvolatile argument of memory intrinsics must be a constant int"
"ISW"
"isysroot"
"It should have at least one range!"
"itanium"
"iundefsym in LC_DYSYMTAB load command extends past the end of the symbol table"
"iundefsym plus nundefsym in LC_DYSYMTAB load  command extends past the end of the symbol table"
"IVAC"
"IVAU"
"ivybridge"
"iWMMX"
"iwmmxt"
"iwmmxt2"
"j"
"JALU0"
"JALU01"
"JALU1"
"JDiv"
"JFPA"
"JFPM"
"JFPU0"
"JFPU01"
"JFPU1"
"JFpuPRF"
"JFPX"
"JIntegerPRF"
"JLAGU"
"JLSAGU"
"JMPREL"
"JMul"
"JSAGU"
"JSTC"
"JUMP_TABLE16"
"JUMP_TABLE32"
"JUMP_TABLE8"
"JVALU"
"JVALU0"
"JVALU1"
"JVIMUL"
"k6-2"
"k6-3"
"k6"
"k8-sse3"
"k8"
"kalimba"
"key isn't a constant integer"
"kfreebsd"
"knl"
"knm"
"krait"
"kryo"
"KryoUnitLS"
"KryoUnitLSA"
"KryoUnitLSB"
"KryoUnitX"
"KryoUnitXA"
"KryoUnitXB"
"KryoUnitXY"
"KryoUnitY"
"KryoUnitYA"
"KryoUnitYB"
"l"
"label requires a valid scope"
"label"
"lakemont"
"lanai"
"landingpad"
"LandingPadInst needs at least one clause or to be a cleanup."
"LandingPadInst needs to be in a function with a personality."
"LandingPadInst not the first non-PHI instruction in the block."
"lane"
"language"
"largest"
"last sequence in debug line table is not terminated!"
"Lazy bind table:\n"
"lazy_bind_off field of "
"lazy_bind_off field plus lazy_bind_size field of "
"lazy_symbol_pointers"
"lazy-bind"
"LC_??? "
"LC_BUILD_VERSION and some LC_VERSION_MIN load command also found"
"LC_CODE_SIGNATURE"
"LC_DATA_IN_CODE"
"LC_DYLD_ENVIRONMENT"
"LC_DYLD_INFO_ONLY"
"LC_DYLD_INFO"
"LC_DYLIB_CODE_SIGN_DRS"
"LC_DYSYMTAB command "
"LC_ENCRYPTION_INFO command "
"LC_ENCRYPTION_INFO_64 command "
"LC_ENCRYPTION_INFO_64"
"LC_ENCRYPTION_INFO"
"LC_FUNCTION_STARTS"
"LC_ID_DYLIB "
"LC_ID_DYLIB load command in non-dynamic library file type"
"LC_ID_DYLIB"
"LC_ID_DYLINKER"
"LC_LAZY_LOAD_DYLIB "
"LC_LAZY_LOAD_DYLIB"
"LC_LINKER_OPTIMIZATION_HINT"
"LC_LOAD_DYLIB "
"LC_LOAD_DYLIB"
"LC_LOAD_DYLINKER"
"LC_LOAD_UPWARD_DYLIB "
"LC_LOAD_UPWARD_DYLIB"
"LC_LOAD_WEAK_DYLIB "
"LC_LOAD_WEAK_DYLIB"
"LC_MAIN command "
"LC_NOTE data"
"LC_REEXPORT_DYLIB "
"LC_REEXPORT_DYLIB"
"LC_ROUTINES command "
"LC_ROUTINES_64 command "
"LC_SEGMENT_64"
"LC_SEGMENT_SPLIT_INFO"
"LC_SEGMENT"
"LC_SOURCE_VERSION command "
"LC_SUB_CLIENT"
"LC_SUB_FRAMEWORK"
"LC_SUB_LIBRARY"
"LC_SUB_UMBRELLA"
"LC_SYMTAB command "
"LC_THREAD"
"LC_UNIXTHREAD"
"LC_UUID command "
"LC_VERSION_MIN_IPHONEOS"
"LC_VERSION_MIN_MACOSX"
"LC_VERSION_MIN_TVOS"
"LC_VERSION_MIN_WATCHOS"
"ld"
"ld1"
"ld1\t$\xFF\x02-$\xFF\x04\x19, [$\x01], #2"
"ld1\t$\xFF\x02,, [$\x01], #16"
"ld1\t$\xFF\x02,, [$\x01], #32"
"ld1\t$\xFF\x02,, [$\x01], #48"
"ld1\t$\xFF\x02,, [$\x01], #64"
"ld1\t$\xFF\x02.$\xFF\x04\x19, [$\x01], #4"
"ld1\t$\xFF\x02', [$\x01], #16"
"ld1\t$\xFF\x02', [$\x01], #32"
"ld1\t$\xFF\x02', [$\x01], #48"
"ld1\t$\xFF\x02', [$\x01], #64"
"ld1\t$\xFF\x02(, [$\x01], #16"
"ld1\t$\xFF\x02(, [$\x01], #24"
"ld1\t$\xFF\x02(, [$\x01], #32"
"ld1\t$\xFF\x02(, [$\x01], #8"
"ld1\t$\xFF\x02), [$\x01], #16"
"ld1\t$\xFF\x02), [$\x01], #24"
"ld1\t$\xFF\x02), [$\x01], #32"
"ld1\t$\xFF\x02), [$\x01], #8"
"ld1\t$\xFF\x02*, [$\x01], #16"
"ld1\t$\xFF\x02*, [$\x01], #32"
"ld1\t$\xFF\x02*, [$\x01], #48"
"ld1\t$\xFF\x02*, [$\x01], #64"
"ld1\t$\xFF\x02/$\xFF\x04\x19, [$\x01], #8"
"ld1\t$\xFF\x02&, [$\x01], #16"
"ld1\t$\xFF\x02&, [$\x01], #24"
"ld1\t$\xFF\x02&, [$\x01], #32"
"ld1\t$\xFF\x02&, [$\x01], #8"
"ld1\t$\xFF\x02%, [$\x01], #16"
"ld1\t$\xFF\x02%, [$\x01], #32"
"ld1\t$\xFF\x02%, [$\x01], #48"
"ld1\t$\xFF\x02%, [$\x01], #64"
"ld1\t$\xFF\x02+, [$\x01], #16"
"ld1\t$\xFF\x02+, [$\x01], #24"
"ld1\t$\xFF\x02+, [$\x01], #32"
"ld1\t$\xFF\x02+, [$\x01], #8"
"ld1\t$\xFF\x020$\xFF\x04\x19, [$\x01], #1"
"ld1b\t$\xFF\x01 , $\xFF\x02\x07/z, [$\x03]"
"ld1b\t$\xFF\x01 , $\xFF\x02\x07/z, [$\xFF\x03\x10]"
"ld1b\t$\xFF\x01!, $\xFF\x02\x07/z, [$\x03]"
"ld1b\t$\xFF\x01!, $\xFF\x02\x07/z, [$\xFF\x03\x0B]"
"ld1b\t$\xFF\x01#, $\xFF\x02\x07/z, [$\x03]"
"ld1b\t$\xFF\x01$, $\xFF\x02\x07/z, [$\x03]"
"ld1d\t$\xFF\x01 , $\xFF\x02\x07/z, [$\x03]"
"ld1d\t$\xFF\x01 , $\xFF\x02\x07/z, [$\xFF\x03\x10]"
"ld1h\t$\xFF\x01 , $\xFF\x02\x07/z, [$\x03]"
"ld1h\t$\xFF\x01 , $\xFF\x02\x07/z, [$\xFF\x03\x10]"
"ld1h\t$\xFF\x01!, $\xFF\x02\x07/z, [$\x03]"
"ld1h\t$\xFF\x01!, $\xFF\x02\x07/z, [$\xFF\x03\x0B]"
"ld1h\t$\xFF\x01#, $\xFF\x02\x07/z, [$\x03]"
"ld1r"
"ld1r\t$\xFF\x02,, [$\x01], #2"
"ld1r\t$\xFF\x02', [$\x01], #8"
"ld1r\t$\xFF\x02(, [$\x01], #4"
"ld1r\t$\xFF\x02), [$\x01], #2"
"ld1r\t$\xFF\x02*, [$\x01], #4"
"ld1r\t$\xFF\x02&, [$\x01], #8"
"ld1r\t$\xFF\x02%, [$\x01], #1"
"ld1r\t$\xFF\x02+, [$\x01], #1"
"ld1rb\t$\xFF\x01 , $\xFF\x02\x07/z, [$\x03]"
"ld1rb\t$\xFF\x01!, $\xFF\x02\x07/z, [$\x03]"
"ld1rb\t$\xFF\x01#, $\xFF\x02\x07/z, [$\x03]"
"ld1rb\t$\xFF\x01$, $\xFF\x02\x07/z, [$\x03]"
"ld1rd\t$\xFF\x01 , $\xFF\x02\x07/z, [$\x03]"
"ld1rh\t$\xFF\x01 , $\xFF\x02\x07/z, [$\x03]"
"ld1rh\t$\xFF\x01!, $\xFF\x02\x07/z, [$\x03]"
"ld1rh\t$\xFF\x01#, $\xFF\x02\x07/z, [$\x03]"
"ld1rqb\t$\xFF\x01$, $\xFF\x02\x07/z, [$\x03]"
"ld1rqd\t$\xFF\x01 , $\xFF\x02\x07/z, [$\x03]"
"ld1rqh\t$\xFF\x01#, $\xFF\x02\x07/z, [$\x03]"
"ld1rqw\t$\xFF\x01!, $\xFF\x02\x07/z, [$\x03]"
"ld1rsb\t$\xFF\x01 , $\xFF\x02\x07/z, [$\x03]"
"ld1rsb\t$\xFF\x01!, $\xFF\x02\x07/z, [$\x03]"
"ld1rsb\t$\xFF\x01#, $\xFF\x02\x07/z, [$\x03]"
"ld1rsh\t$\xFF\x01 , $\xFF\x02\x07/z, [$\x03]"
"ld1rsh\t$\xFF\x01!, $\xFF\x02\x07/z, [$\x03]"
"ld1rsw\t$\xFF\x01 , $\xFF\x02\x07/z, [$\x03]"
"ld1rw\t$\xFF\x01 , $\xFF\x02\x07/z, [$\x03]"
"ld1rw\t$\xFF\x01!, $\xFF\x02\x07/z, [$\x03]"
"ld1sb\t$\xFF\x01 , $\xFF\x02\x07/z, [$\x03]"
"ld1sb\t$\xFF\x01 , $\xFF\x02\x07/z, [$\xFF\x03\x10]"
"ld1sb\t$\xFF\x01!, $\xFF\x02\x07/z, [$\x03]"
"ld1sb\t$\xFF\x01!, $\xFF\x02\x07/z, [$\xFF\x03\x0B]"
"ld1sb\t$\xFF\x01#, $\xFF\x02\x07/z, [$\x03]"
"ld1sh\t$\xFF\x01 , $\xFF\x02\x07/z, [$\x03]"
"ld1sh\t$\xFF\x01 , $\xFF\x02\x07/z, [$\xFF\x03\x10]"
"ld1sh\t$\xFF\x01!, $\xFF\x02\x07/z, [$\x03]"
"ld1sh\t$\xFF\x01!, $\xFF\x02\x07/z, [$\xFF\x03\x0B]"
"ld1sw\t$\xFF\x01 , $\xFF\x02\x07/z, [$\x03]"
"ld1sw\t$\xFF\x01 , $\xFF\x02\x07/z, [$\xFF\x03\x10]"
"ld1w\t$\xFF\x01 , $\xFF\x02\x07/z, [$\x03]"
"ld1w\t$\xFF\x01 , $\xFF\x02\x07/z, [$\xFF\x03\x10]"
"ld1w\t$\xFF\x01!, $\xFF\x02\x07/z, [$\x03]"
"ld1w\t$\xFF\x01!, $\xFF\x02\x07/z, [$\xFF\x03\x0B]"
"ld2"
"ld2\t$\xFF\x02-$\xFF\x04\x19, [$\x01], #4"
"ld2\t$\xFF\x02,, [$\x01], #32"
"ld2\t$\xFF\x02.$\xFF\x04\x19, [$\x01], #8"
"ld2\t$\xFF\x02', [$\x01], #32"
"ld2\t$\xFF\x02(, [$\x01], #16"
"ld2\t$\xFF\x02), [$\x01], #16"
"ld2\t$\xFF\x02*, [$\x01], #32"
"ld2\t$\xFF\x02/$\xFF\x04\x19, [$\x01], #16"
"ld2\t$\xFF\x02%, [$\x01], #32"
"ld2\t$\xFF\x02+, [$\x01], #16"
"ld2\t$\xFF\x020$\xFF\x04\x19, [$\x01], #2"
"ld2b\t$\xFF\x01$, $\xFF\x02\x07/z, [$\x03]"
"ld2d\t$\xFF\x01 , $\xFF\x02\x07/z, [$\x03]"
"ld2h\t$\xFF\x01#, $\xFF\x02\x07/z, [$\x03]"
"ld2r"
"ld2r\t$\xFF\x02,, [$\x01], #4"
"ld2r\t$\xFF\x02', [$\x01], #16"
"ld2r\t$\xFF\x02(, [$\x01], #8"
"ld2r\t$\xFF\x02), [$\x01], #4"
"ld2r\t$\xFF\x02*, [$\x01], #8"
"ld2r\t$\xFF\x02&, [$\x01], #16"
"ld2r\t$\xFF\x02%, [$\x01], #2"
"ld2r\t$\xFF\x02+, [$\x01], #2"
"ld2w\t$\xFF\x01!, $\xFF\x02\x07/z, [$\x03]"
"ld3"
"ld3\t$\xFF\x02-$\xFF\x04\x19, [$\x01], #6"
"ld3\t$\xFF\x02,, [$\x01], #48"
"ld3\t$\xFF\x02.$\xFF\x04\x19, [$\x01], #12"
"ld3\t$\xFF\x02', [$\x01], #48"
"ld3\t$\xFF\x02(, [$\x01], #24"
"ld3\t$\xFF\x02), [$\x01], #24"
"ld3\t$\xFF\x02*, [$\x01], #48"
"ld3\t$\xFF\x02/$\xFF\x04\x19, [$\x01], #24"
"ld3\t$\xFF\x02%, [$\x01], #48"
"ld3\t$\xFF\x02+, [$\x01], #24"
"ld3\t$\xFF\x020$\xFF\x04\x19, [$\x01], #3"
"ld3b\t$\xFF\x01$, $\xFF\x02\x07/z, [$\x03]"
"ld3d\t$\xFF\x01 , $\xFF\x02\x07/z, [$\x03]"
"ld3h\t$\xFF\x01#, $\xFF\x02\x07/z, [$\x03]"
"ld3r"
"ld3r\t$\xFF\x02,, [$\x01], #6"
"ld3r\t$\xFF\x02', [$\x01], #24"
"ld3r\t$\xFF\x02(, [$\x01], #12"
"ld3r\t$\xFF\x02), [$\x01], #6"
"ld3r\t$\xFF\x02*, [$\x01], #12"
"ld3r\t$\xFF\x02&, [$\x01], #24"
"ld3r\t$\xFF\x02%, [$\x01], #3"
"ld3r\t$\xFF\x02+, [$\x01], #3"
"ld3w\t$\xFF\x01!, $\xFF\x02\x07/z, [$\x03]"
"ld4"
"ld4\t$\xFF\x02-$\xFF\x04\x19, [$\x01], #8"
"ld4\t$\xFF\x02,, [$\x01], #64"
"ld4\t$\xFF\x02.$\xFF\x04\x19, [$\x01], #16"
"ld4\t$\xFF\x02', [$\x01], #64"
"ld4\t$\xFF\x02(, [$\x01], #32"
"ld4\t$\xFF\x02), [$\x01], #32"
"ld4\t$\xFF\x02*, [$\x01], #64"
"ld4\t$\xFF\x02/$\xFF\x04\x19, [$\x01], #32"
"ld4\t$\xFF\x02%, [$\x01], #64"
"ld4\t$\xFF\x02+, [$\x01], #32"
"ld4\t$\xFF\x020$\xFF\x04\x19, [$\x01], #4"
"ld4b\t$\xFF\x01$, $\xFF\x02\x07/z, [$\x03]"
"ld4d\t$\xFF\x01 , $\xFF\x02\x07/z, [$\x03]"
"ld4h\t$\xFF\x01#, $\xFF\x02\x07/z, [$\x03]"
"ld4r"
"ld4r\t$\xFF\x02,, [$\x01], #8"
"ld4r\t$\xFF\x02', [$\x01], #32"
"ld4r\t$\xFF\x02(, [$\x01], #16"
"ld4r\t$\xFF\x02), [$\x01], #8"
"ld4r\t$\xFF\x02*, [$\x01], #16"
"ld4r\t$\xFF\x02&, [$\x01], #32"
"ld4r\t$\xFF\x02%, [$\x01], #4"
"ld4r\t$\xFF\x02+, [$\x01], #4"
"ld4w\t$\xFF\x01!, $\xFF\x02\x07/z, [$\x03]"
"ldapur\t$\x01, [$\x02]"
"ldapurb\t$\x01, [$\x02]"
"ldapurh\t$\x01, [$\x02]"
"ldapursb\t$\x01, [$\x02]"
"ldapursh\t$\x01, [$\x02]"
"ldapursw\t$\x01, [$\x02]"
"ldff1b\t$\xFF\x01 , $\xFF\x02\x07/z, [$\x03]"
"ldff1b\t$\xFF\x01 , $\xFF\x02\x07/z, [$\xFF\x03\x10]"
"ldff1b\t$\xFF\x01!, $\xFF\x02\x07/z, [$\x03]"
"ldff1b\t$\xFF\x01!, $\xFF\x02\x07/z, [$\xFF\x03\x0B]"
"ldff1b\t$\xFF\x01#, $\xFF\x02\x07/z, [$\x03]"
"ldff1b\t$\xFF\x01$, $\xFF\x02\x07/z, [$\x03]"
"ldff1d\t$\xFF\x01 , $\xFF\x02\x07/z, [$\x03]"
"ldff1d\t$\xFF\x01 , $\xFF\x02\x07/z, [$\xFF\x03\x10]"
"ldff1h\t$\xFF\x01 , $\xFF\x02\x07/z, [$\x03]"
"ldff1h\t$\xFF\x01 , $\xFF\x02\x07/z, [$\xFF\x03\x10]"
"ldff1h\t$\xFF\x01!, $\xFF\x02\x07/z, [$\x03]"
"ldff1h\t$\xFF\x01!, $\xFF\x02\x07/z, [$\xFF\x03\x0B]"
"ldff1h\t$\xFF\x01#, $\xFF\x02\x07/z, [$\x03]"
"ldff1sb\t$\xFF\x01 , $\xFF\x02\x07/z, [$\x03]"
"ldff1sb\t$\xFF\x01 , $\xFF\x02\x07/z, [$\xFF\x03\x10]"
"ldff1sb\t$\xFF\x01!, $\xFF\x02\x07/z, [$\x03]"
"ldff1sb\t$\xFF\x01!, $\xFF\x02\x07/z, [$\xFF\x03\x0B]"
"ldff1sb\t$\xFF\x01#, $\xFF\x02\x07/z, [$\x03]"
"ldff1sh\t$\xFF\x01 , $\xFF\x02\x07/z, [$\x03]"
"ldff1sh\t$\xFF\x01 , $\xFF\x02\x07/z, [$\xFF\x03\x10]"
"ldff1sh\t$\xFF\x01!, $\xFF\x02\x07/z, [$\x03]"
"ldff1sh\t$\xFF\x01!, $\xFF\x02\x07/z, [$\xFF\x03\x0B]"
"ldff1sw\t$\xFF\x01 , $\xFF\x02\x07/z, [$\x03]"
"ldff1sw\t$\xFF\x01 , $\xFF\x02\x07/z, [$\xFF\x03\x10]"
"ldff1w\t$\xFF\x01 , $\xFF\x02\x07/z, [$\x03]"
"ldff1w\t$\xFF\x01 , $\xFF\x02\x07/z, [$\xFF\x03\x10]"
"ldff1w\t$\xFF\x01!, $\xFF\x02\x07/z, [$\x03]"
"ldff1w\t$\xFF\x01!, $\xFF\x02\x07/z, [$\xFF\x03\x0B]"
"LDGOT"
"ldnf1b\t$\xFF\x01 , $\xFF\x02\x07/z, [$\x03]"
"ldnf1b\t$\xFF\x01!, $\xFF\x02\x07/z, [$\x03]"
"ldnf1b\t$\xFF\x01#, $\xFF\x02\x07/z, [$\x03]"
"ldnf1b\t$\xFF\x01$, $\xFF\x02\x07/z, [$\x03]"
"ldnf1d\t$\xFF\x01 , $\xFF\x02\x07/z, [$\x03]"
"ldnf1h\t$\xFF\x01 , $\xFF\x02\x07/z, [$\x03]"
"ldnf1h\t$\xFF\x01!, $\xFF\x02\x07/z, [$\x03]"
"ldnf1h\t$\xFF\x01#, $\xFF\x02\x07/z, [$\x03]"
"ldnf1sb\t$\xFF\x01 , $\xFF\x02\x07/z, [$\x03]"
"ldnf1sb\t$\xFF\x01!, $\xFF\x02\x07/z, [$\x03]"
"ldnf1sb\t$\xFF\x01#, $\xFF\x02\x07/z, [$\x03]"
"ldnf1sh\t$\xFF\x01 , $\xFF\x02\x07/z, [$\x03]"
"ldnf1sh\t$\xFF\x01!, $\xFF\x02\x07/z, [$\x03]"
"ldnf1sw\t$\xFF\x01 , $\xFF\x02\x07/z, [$\x03]"
"ldnf1w\t$\xFF\x01 , $\xFF\x02\x07/z, [$\x03]"
"ldnf1w\t$\xFF\x01!, $\xFF\x02\x07/z, [$\x03]"
"ldnp\t$\x01, $\x02, [$\x03]"
"ldnt1b\t$\xFF\x01$, $\xFF\x02\x07/z, [$\x03]"
"ldnt1d\t$\xFF\x01 , $\xFF\x02\x07/z, [$\x03]"
"ldnt1h\t$\xFF\x01#, $\xFF\x02\x07/z, [$\x03]"
"ldnt1w\t$\xFF\x01!, $\xFF\x02\x07/z, [$\x03]"
"ldp\t$\x01, $\x02, [$\x03]"
"LDPLT"
"ldpsw\t$\x01, $\x02, [$\x03]"
"ldr\t$\x01, [$\x02, $\x03]"
"ldr\t$\x01, [$\x02]"
"ldr\t$\xFF\x01\x07, [$\x02]"
"ldraa\t$\x01, [$\x02]"
"ldrab\t$\x01, [$\x02]"
"ldrb\t$\x01, [$\x02, $\x03]"
"ldrb\t$\x01, [$\x02]"
"ldrh\t$\x01, [$\x02, $\x03]"
"ldrh\t$\x01, [$\x02]"
"ldrsb\t$\x01, [$\x02, $\x03]"
"ldrsb\t$\x01, [$\x02]"
"ldrsh\t$\x01, [$\x02, $\x03]"
"ldrsh\t$\x01, [$\x02]"
"ldrsw\t$\x01, [$\x02, $\x03]"
"ldrsw\t$\x01, [$\x02]"
"ldtr\t$\x01, [$\x02]"
"ldtrb\t$\x01, [$\x02]"
"ldtrh\t$\x01, [$\x02]"
"ldtrsb\t$\x01, [$\x02]"
"ldtrsh\t$\x01, [$\x02]"
"ldtrsw\t$\x01, [$\x02]"
"ldur\t$\x01, [$\x02]"
"ldurb\t$\x01, [$\x02]"
"ldurh\t$\x01, [$\x02]"
"ldursb\t$\x01, [$\x02]"
"ldursh\t$\x01, [$\x02]"
"ldursw\t$\x01, [$\x02]"
"le_oq"
"le"
"le32"
"le64"
"LEA instruction needs inputs at AG stage"
"LEA instruction with 3 ops or certain registers is slow"
"LEA instruction with certain arguments is slow"
"lea-sp"
"lea-uses-ag"
"LEB is outside Varint32 range"
"LEB is outside Varuint1 range"
"LEB is outside Varuint32 range"
"left-brace"
"left-curly-bracket"
"left-parenthesis"
"left-square-bracket"
"length = "
"Length"
"less-than-sign"
"LF"
"lifetime.start"
"Line number less than zero in '.cv_inline_linetable' directive"
"line number less than zero in '.cv_loc' directive"
"line number less than zero in '.loc' directive"
"line specified with no file"
"Line table prologue:\n"
"line_table_start"
"line-numbers"
"line"
"linetable_begin"
"linetable_end"
"LineTablesOnly"
"link-opt-hints"
"Linkage must be 'comdat'"
"linkageName"
"linker optimization hints"
"Linker optimiztion hints ("
"Linker Options"
"Linking data must come after code section"
"Linking section ended prematurely"
"Linking sub-section ended prematurely"
"linking"
"Linux Application"
"Linux DSO"
"linux"
"List of functions to disassemble"
"literal pool for: \""
"literal pool symbol address: "
"literal value not a power of two greater then zero"
"literal value out of range for directive"
"literal_pointers"
"live_support"
"ll"
"LLVM ERROR: "
"LLVM ERROR: out of memory\n"
"llvm intrinsics cannot be defined!"
"llvm object file dumper\n"
"LLVM was not compiled with support for DIA.  This usually means that you are not using MSVC, or your Visual Studio installation is corrupt."
"llvm_call_graph_profile"
"LLVM_DISABLE_CRASH_REPORT"
"llvm_linker_options"
"llvm_odrtab"
"LLVM_OVERRIDE_PRODUCER"
"llvm_regexec() failed to match"
"llvm-mc (based on LLVM 10.0.1)"
"llvm-objdump: '"
"llvm-objdump: "
"llvm-objdump: error: unable to get target for '"
"llvm-objdump: file: "
"llvm-objdump: Unknown architecture named '"
"llvm-objdump: warning: invalid instruction encoding\n"
"llvm-objdump"
"llvm-symbolizer"
"llvm."
"llvm.aarch64.clrex"
"llvm.aarch64.crc32b"
"llvm.aarch64.crc32cb"
"llvm.aarch64.crc32ch"
"llvm.aarch64.crc32cw"
"llvm.aarch64.crc32cx"
"llvm.aarch64.crc32h"
"llvm.aarch64.crc32w"
"llvm.aarch64.crc32x"
"llvm.aarch64.crypto.aesd"
"llvm.aarch64.crypto.aese"
"llvm.aarch64.crypto.aesimc"
"llvm.aarch64.crypto.aesmc"
"llvm.aarch64.crypto.sha1c"
"llvm.aarch64.crypto.sha1h"
"llvm.aarch64.crypto.sha1m"
"llvm.aarch64.crypto.sha1p"
"llvm.aarch64.crypto.sha1su0"
"llvm.aarch64.crypto.sha1su1"
"llvm.aarch64.crypto.sha256h"
"llvm.aarch64.crypto.sha256h2"
"llvm.aarch64.crypto.sha256su0"
"llvm.aarch64.crypto.sha256su1"
"llvm.aarch64.dmb"
"llvm.aarch64.dsb"
"llvm.aarch64.get.fpcr"
"llvm.aarch64.hint"
"llvm.aarch64.isb"
"llvm.aarch64.ldaxp"
"llvm.aarch64.ldaxr"
"llvm.aarch64.ldxp"
"llvm.aarch64.ldxr"
"llvm.aarch64.neon.abs"
"llvm.aarch64.neon.addhn"
"llvm.aarch64.neon.addp"
"llvm.aarch64.neon.cls"
"llvm.aarch64.neon.fabd"
"llvm.aarch64.neon.facge"
"llvm.aarch64.neon.facgt"
"llvm.aarch64.neon.faddv"
"llvm.aarch64.neon.fcvtas"
"llvm.aarch64.neon.fcvtau"
"llvm.aarch64.neon.fcvtms"
"llvm.aarch64.neon.fcvtmu"
"llvm.aarch64.neon.fcvtns"
"llvm.aarch64.neon.fcvtnu"
"llvm.aarch64.neon.fcvtps"
"llvm.aarch64.neon.fcvtpu"
"llvm.aarch64.neon.fcvtxn"
"llvm.aarch64.neon.fcvtzs"
"llvm.aarch64.neon.fcvtzu"
"llvm.aarch64.neon.fmax"
"llvm.aarch64.neon.fmaxnm"
"llvm.aarch64.neon.fmaxnmp"
"llvm.aarch64.neon.fmaxnmv"
"llvm.aarch64.neon.fmaxp"
"llvm.aarch64.neon.fmaxv"
"llvm.aarch64.neon.fmin"
"llvm.aarch64.neon.fminnm"
"llvm.aarch64.neon.fminnmp"
"llvm.aarch64.neon.fminnmv"
"llvm.aarch64.neon.fminp"
"llvm.aarch64.neon.fminv"
"llvm.aarch64.neon.fmulx"
"llvm.aarch64.neon.frecpe"
"llvm.aarch64.neon.frecps"
"llvm.aarch64.neon.frecpx"
"llvm.aarch64.neon.frintn"
"llvm.aarch64.neon.frsqrte"
"llvm.aarch64.neon.frsqrts"
"llvm.aarch64.neon.ld1x2"
"llvm.aarch64.neon.ld1x3"
"llvm.aarch64.neon.ld1x4"
"llvm.aarch64.neon.ld2"
"llvm.aarch64.neon.ld2lane"
"llvm.aarch64.neon.ld2r"
"llvm.aarch64.neon.ld3"
"llvm.aarch64.neon.ld3lane"
"llvm.aarch64.neon.ld3r"
"llvm.aarch64.neon.ld4"
"llvm.aarch64.neon.ld4lane"
"llvm.aarch64.neon.ld4r"
"llvm.aarch64.neon.pmul"
"llvm.aarch64.neon.pmull"
"llvm.aarch64.neon.pmull64"
"llvm.aarch64.neon.raddhn"
"llvm.aarch64.neon.rbit"
"llvm.aarch64.neon.rshrn"
"llvm.aarch64.neon.rsubhn"
"llvm.aarch64.neon.sabd"
"llvm.aarch64.neon.saddlp"
"llvm.aarch64.neon.saddlv"
"llvm.aarch64.neon.saddv"
"llvm.aarch64.neon.scalar.sqxtn"
"llvm.aarch64.neon.scalar.sqxtun"
"llvm.aarch64.neon.scalar.uqxtn"
"llvm.aarch64.neon.sdot"
"llvm.aarch64.neon.shadd"
"llvm.aarch64.neon.shll"
"llvm.aarch64.neon.shsub"
"llvm.aarch64.neon.smax"
"llvm.aarch64.neon.smaxp"
"llvm.aarch64.neon.smaxv"
"llvm.aarch64.neon.smin"
"llvm.aarch64.neon.sminp"
"llvm.aarch64.neon.sminv"
"llvm.aarch64.neon.smull"
"llvm.aarch64.neon.sqabs"
"llvm.aarch64.neon.sqadd"
"llvm.aarch64.neon.sqdmulh"
"llvm.aarch64.neon.sqdmull"
"llvm.aarch64.neon.sqdmulls.scalar"
"llvm.aarch64.neon.sqneg"
"llvm.aarch64.neon.sqrdmulh"
"llvm.aarch64.neon.sqrshl"
"llvm.aarch64.neon.sqrshrn"
"llvm.aarch64.neon.sqrshrun"
"llvm.aarch64.neon.sqshl"
"llvm.aarch64.neon.sqshlu"
"llvm.aarch64.neon.sqshrn"
"llvm.aarch64.neon.sqshrun"
"llvm.aarch64.neon.sqsub"
"llvm.aarch64.neon.sqxtn"
"llvm.aarch64.neon.sqxtun"
"llvm.aarch64.neon.srhadd"
"llvm.aarch64.neon.srshl"
"llvm.aarch64.neon.sshl"
"llvm.aarch64.neon.sshll"
"llvm.aarch64.neon.st1x2"
"llvm.aarch64.neon.st1x3"
"llvm.aarch64.neon.st1x4"
"llvm.aarch64.neon.st2"
"llvm.aarch64.neon.st2lane"
"llvm.aarch64.neon.st3"
"llvm.aarch64.neon.st3lane"
"llvm.aarch64.neon.st4"
"llvm.aarch64.neon.st4lane"
"llvm.aarch64.neon.subhn"
"llvm.aarch64.neon.suqadd"
"llvm.aarch64.neon.tbl1"
"llvm.aarch64.neon.tbl2"
"llvm.aarch64.neon.tbl3"
"llvm.aarch64.neon.tbl4"
"llvm.aarch64.neon.tbx1"
"llvm.aarch64.neon.tbx2"
"llvm.aarch64.neon.tbx3"
"llvm.aarch64.neon.tbx4"
"llvm.aarch64.neon.uabd"
"llvm.aarch64.neon.uaddlp"
"llvm.aarch64.neon.uaddlv"
"llvm.aarch64.neon.uaddv"
"llvm.aarch64.neon.udot"
"llvm.aarch64.neon.uhadd"
"llvm.aarch64.neon.uhsub"
"llvm.aarch64.neon.umax"
"llvm.aarch64.neon.umaxp"
"llvm.aarch64.neon.umaxv"
"llvm.aarch64.neon.umin"
"llvm.aarch64.neon.uminp"
"llvm.aarch64.neon.uminv"
"llvm.aarch64.neon.umull"
"llvm.aarch64.neon.uqadd"
"llvm.aarch64.neon.uqrshl"
"llvm.aarch64.neon.uqrshrn"
"llvm.aarch64.neon.uqshl"
"llvm.aarch64.neon.uqshrn"
"llvm.aarch64.neon.uqsub"
"llvm.aarch64.neon.uqxtn"
"llvm.aarch64.neon.urecpe"
"llvm.aarch64.neon.urhadd"
"llvm.aarch64.neon.urshl"
"llvm.aarch64.neon.ursqrte"
"llvm.aarch64.neon.ushl"
"llvm.aarch64.neon.ushll"
"llvm.aarch64.neon.usqadd"
"llvm.aarch64.neon.vcopy.lane"
"llvm.aarch64.neon.vcvtfp2fxs"
"llvm.aarch64.neon.vcvtfp2fxu"
"llvm.aarch64.neon.vcvtfp2hf"
"llvm.aarch64.neon.vcvtfxs2fp"
"llvm.aarch64.neon.vcvtfxu2fp"
"llvm.aarch64.neon.vcvthf2fp"
"llvm.aarch64.neon.vsli"
"llvm.aarch64.neon.vsri"
"llvm.aarch64.sdiv"
"llvm.aarch64.sisd.fabd"
"llvm.aarch64.sisd.fcvtxn"
"llvm.aarch64.sisd.fmax"
"llvm.aarch64.sisd.fmaxnm"
"llvm.aarch64.sisd.fmin"
"llvm.aarch64.sisd.fminnm"
"llvm.aarch64.stlxp"
"llvm.aarch64.stlxr"
"llvm.aarch64.stxp"
"llvm.aarch64.stxr"
"llvm.aarch64.udiv"
"llvm.addressofreturnaddress"
"llvm.adjust.trampoline"
"llvm.amdgcn.alignbit"
"llvm.amdgcn.alignbyte"
"llvm.amdgcn.atomic.dec"
"llvm.amdgcn.atomic.inc"
"llvm.amdgcn.break"
"llvm.amdgcn.buffer.atomic.add"
"llvm.amdgcn.buffer.atomic.and"
"llvm.amdgcn.buffer.atomic.cmpswap"
"llvm.amdgcn.buffer.atomic.or"
"llvm.amdgcn.buffer.atomic.smax"
"llvm.amdgcn.buffer.atomic.smin"
"llvm.amdgcn.buffer.atomic.sub"
"llvm.amdgcn.buffer.atomic.swap"
"llvm.amdgcn.buffer.atomic.umax"
"llvm.amdgcn.buffer.atomic.umin"
"llvm.amdgcn.buffer.atomic.xor"
"llvm.amdgcn.buffer.load.format"
"llvm.amdgcn.buffer.load"
"llvm.amdgcn.buffer.store.format"
"llvm.amdgcn.buffer.store"
"llvm.amdgcn.buffer.wbinvl1.sc"
"llvm.amdgcn.buffer.wbinvl1.vol"
"llvm.amdgcn.buffer.wbinvl1"
"llvm.amdgcn.class"
"llvm.amdgcn.cos"
"llvm.amdgcn.cubeid"
"llvm.amdgcn.cubema"
"llvm.amdgcn.cubesc"
"llvm.amdgcn.cubetc"
"llvm.amdgcn.cvt.pk.i16"
"llvm.amdgcn.cvt.pk.u16"
"llvm.amdgcn.cvt.pk.u8.f32"
"llvm.amdgcn.cvt.pknorm.i16"
"llvm.amdgcn.cvt.pknorm.u16"
"llvm.amdgcn.cvt.pkrtz"
"llvm.amdgcn.dispatch.id"
"llvm.amdgcn.dispatch.ptr"
"llvm.amdgcn.div.fixup"
"llvm.amdgcn.div.fmas"
"llvm.amdgcn.div.scale"
"llvm.amdgcn.ds.bpermute"
"llvm.amdgcn.ds.fadd"
"llvm.amdgcn.ds.fmax"
"llvm.amdgcn.ds.fmin"
"llvm.amdgcn.ds.permute"
"llvm.amdgcn.ds.swizzle"
"llvm.amdgcn.else.break"
"llvm.amdgcn.else"
"llvm.amdgcn.end.cf"
"llvm.amdgcn.exp.compr"
"llvm.amdgcn.exp"
"llvm.amdgcn.fcmp"
"llvm.amdgcn.fdiv.fast"
"llvm.amdgcn.fdot2"
"llvm.amdgcn.fmad.ftz"
"llvm.amdgcn.fmed3"
"llvm.amdgcn.fmul.legacy"
"llvm.amdgcn.fract"
"llvm.amdgcn.frexp.exp"
"llvm.amdgcn.frexp.mant"
"llvm.amdgcn.groupstaticsize"
"llvm.amdgcn.icmp"
"llvm.amdgcn.if.break"
"llvm.amdgcn.if"
"llvm.amdgcn.image.atomic.add.1d"
"llvm.amdgcn.image.atomic.add.1darray"
"llvm.amdgcn.image.atomic.add.2d"
"llvm.amdgcn.image.atomic.add.2darray"
"llvm.amdgcn.image.atomic.add.2darraymsaa"
"llvm.amdgcn.image.atomic.add.2dmsaa"
"llvm.amdgcn.image.atomic.add.3d"
"llvm.amdgcn.image.atomic.add.cube"
"llvm.amdgcn.image.atomic.and.1d"
"llvm.amdgcn.image.atomic.and.1darray"
"llvm.amdgcn.image.atomic.and.2d"
"llvm.amdgcn.image.atomic.and.2darray"
"llvm.amdgcn.image.atomic.and.2darraymsaa"
"llvm.amdgcn.image.atomic.and.2dmsaa"
"llvm.amdgcn.image.atomic.and.3d"
"llvm.amdgcn.image.atomic.and.cube"
"llvm.amdgcn.image.atomic.cmpswap.1d"
"llvm.amdgcn.image.atomic.cmpswap.1darray"
"llvm.amdgcn.image.atomic.cmpswap.2d"
"llvm.amdgcn.image.atomic.cmpswap.2darray"
"llvm.amdgcn.image.atomic.cmpswap.2darraymsaa"
"llvm.amdgcn.image.atomic.cmpswap.2dmsaa"
"llvm.amdgcn.image.atomic.cmpswap.3d"
"llvm.amdgcn.image.atomic.cmpswap.cube"
"llvm.amdgcn.image.atomic.dec.1d"
"llvm.amdgcn.image.atomic.dec.1darray"
"llvm.amdgcn.image.atomic.dec.2d"
"llvm.amdgcn.image.atomic.dec.2darray"
"llvm.amdgcn.image.atomic.dec.2darraymsaa"
"llvm.amdgcn.image.atomic.dec.2dmsaa"
"llvm.amdgcn.image.atomic.dec.3d"
"llvm.amdgcn.image.atomic.dec.cube"
"llvm.amdgcn.image.atomic.inc.1d"
"llvm.amdgcn.image.atomic.inc.1darray"
"llvm.amdgcn.image.atomic.inc.2d"
"llvm.amdgcn.image.atomic.inc.2darray"
"llvm.amdgcn.image.atomic.inc.2darraymsaa"
"llvm.amdgcn.image.atomic.inc.2dmsaa"
"llvm.amdgcn.image.atomic.inc.3d"
"llvm.amdgcn.image.atomic.inc.cube"
"llvm.amdgcn.image.atomic.or.1d"
"llvm.amdgcn.image.atomic.or.1darray"
"llvm.amdgcn.image.atomic.or.2d"
"llvm.amdgcn.image.atomic.or.2darray"
"llvm.amdgcn.image.atomic.or.2darraymsaa"
"llvm.amdgcn.image.atomic.or.2dmsaa"
"llvm.amdgcn.image.atomic.or.3d"
"llvm.amdgcn.image.atomic.or.cube"
"llvm.amdgcn.image.atomic.smax.1d"
"llvm.amdgcn.image.atomic.smax.1darray"
"llvm.amdgcn.image.atomic.smax.2d"
"llvm.amdgcn.image.atomic.smax.2darray"
"llvm.amdgcn.image.atomic.smax.2darraymsaa"
"llvm.amdgcn.image.atomic.smax.2dmsaa"
"llvm.amdgcn.image.atomic.smax.3d"
"llvm.amdgcn.image.atomic.smax.cube"
"llvm.amdgcn.image.atomic.smin.1d"
"llvm.amdgcn.image.atomic.smin.1darray"
"llvm.amdgcn.image.atomic.smin.2d"
"llvm.amdgcn.image.atomic.smin.2darray"
"llvm.amdgcn.image.atomic.smin.2darraymsaa"
"llvm.amdgcn.image.atomic.smin.2dmsaa"
"llvm.amdgcn.image.atomic.smin.3d"
"llvm.amdgcn.image.atomic.smin.cube"
"llvm.amdgcn.image.atomic.sub.1d"
"llvm.amdgcn.image.atomic.sub.1darray"
"llvm.amdgcn.image.atomic.sub.2d"
"llvm.amdgcn.image.atomic.sub.2darray"
"llvm.amdgcn.image.atomic.sub.2darraymsaa"
"llvm.amdgcn.image.atomic.sub.2dmsaa"
"llvm.amdgcn.image.atomic.sub.3d"
"llvm.amdgcn.image.atomic.sub.cube"
"llvm.amdgcn.image.atomic.swap.1d"
"llvm.amdgcn.image.atomic.swap.1darray"
"llvm.amdgcn.image.atomic.swap.2d"
"llvm.amdgcn.image.atomic.swap.2darray"
"llvm.amdgcn.image.atomic.swap.2darraymsaa"
"llvm.amdgcn.image.atomic.swap.2dmsaa"
"llvm.amdgcn.image.atomic.swap.3d"
"llvm.amdgcn.image.atomic.swap.cube"
"llvm.amdgcn.image.atomic.umax.1d"
"llvm.amdgcn.image.atomic.umax.1darray"
"llvm.amdgcn.image.atomic.umax.2d"
"llvm.amdgcn.image.atomic.umax.2darray"
"llvm.amdgcn.image.atomic.umax.2darraymsaa"
"llvm.amdgcn.image.atomic.umax.2dmsaa"
"llvm.amdgcn.image.atomic.umax.3d"
"llvm.amdgcn.image.atomic.umax.cube"
"llvm.amdgcn.image.atomic.umin.1d"
"llvm.amdgcn.image.atomic.umin.1darray"
"llvm.amdgcn.image.atomic.umin.2d"
"llvm.amdgcn.image.atomic.umin.2darray"
"llvm.amdgcn.image.atomic.umin.2darraymsaa"
"llvm.amdgcn.image.atomic.umin.2dmsaa"
"llvm.amdgcn.image.atomic.umin.3d"
"llvm.amdgcn.image.atomic.umin.cube"
"llvm.amdgcn.image.atomic.xor.1d"
"llvm.amdgcn.image.atomic.xor.1darray"
"llvm.amdgcn.image.atomic.xor.2d"
"llvm.amdgcn.image.atomic.xor.2darray"
"llvm.amdgcn.image.atomic.xor.2darraymsaa"
"llvm.amdgcn.image.atomic.xor.2dmsaa"
"llvm.amdgcn.image.atomic.xor.3d"
"llvm.amdgcn.image.atomic.xor.cube"
"llvm.amdgcn.image.gather4.2d"
"llvm.amdgcn.image.gather4.2darray"
"llvm.amdgcn.image.gather4.b.2d"
"llvm.amdgcn.image.gather4.b.2darray"
"llvm.amdgcn.image.gather4.b.cl.2d"
"llvm.amdgcn.image.gather4.b.cl.2darray"
"llvm.amdgcn.image.gather4.b.cl.cube"
"llvm.amdgcn.image.gather4.b.cl.o.2d"
"llvm.amdgcn.image.gather4.b.cl.o.2darray"
"llvm.amdgcn.image.gather4.b.cl.o.cube"
"llvm.amdgcn.image.gather4.b.cube"
"llvm.amdgcn.image.gather4.b.o.2d"
"llvm.amdgcn.image.gather4.b.o.2darray"
"llvm.amdgcn.image.gather4.b.o.cube"
"llvm.amdgcn.image.gather4.c.2d"
"llvm.amdgcn.image.gather4.c.2darray"
"llvm.amdgcn.image.gather4.c.b.2d"
"llvm.amdgcn.image.gather4.c.b.2darray"
"llvm.amdgcn.image.gather4.c.b.cl.2d"
"llvm.amdgcn.image.gather4.c.b.cl.2darray"
"llvm.amdgcn.image.gather4.c.b.cl.cube"
"llvm.amdgcn.image.gather4.c.b.cl.o.2d"
"llvm.amdgcn.image.gather4.c.b.cl.o.2darray"
"llvm.amdgcn.image.gather4.c.b.cl.o.cube"
"llvm.amdgcn.image.gather4.c.b.cube"
"llvm.amdgcn.image.gather4.c.b.o.2d"
"llvm.amdgcn.image.gather4.c.b.o.2darray"
"llvm.amdgcn.image.gather4.c.b.o.cube"
"llvm.amdgcn.image.gather4.c.cl.2d"
"llvm.amdgcn.image.gather4.c.cl.2darray"
"llvm.amdgcn.image.gather4.c.cl.cube"
"llvm.amdgcn.image.gather4.c.cl.o.2d"
"llvm.amdgcn.image.gather4.c.cl.o.2darray"
"llvm.amdgcn.image.gather4.c.cl.o.cube"
"llvm.amdgcn.image.gather4.c.cube"
"llvm.amdgcn.image.gather4.c.l.2d"
"llvm.amdgcn.image.gather4.c.l.2darray"
"llvm.amdgcn.image.gather4.c.l.cube"
"llvm.amdgcn.image.gather4.c.l.o.2d"
"llvm.amdgcn.image.gather4.c.l.o.2darray"
"llvm.amdgcn.image.gather4.c.l.o.cube"
"llvm.amdgcn.image.gather4.c.lz.2d"
"llvm.amdgcn.image.gather4.c.lz.2darray"
"llvm.amdgcn.image.gather4.c.lz.cube"
"llvm.amdgcn.image.gather4.c.lz.o.2d"
"llvm.amdgcn.image.gather4.c.lz.o.2darray"
"llvm.amdgcn.image.gather4.c.lz.o.cube"
"llvm.amdgcn.image.gather4.c.o.2d"
"llvm.amdgcn.image.gather4.c.o.2darray"
"llvm.amdgcn.image.gather4.c.o.cube"
"llvm.amdgcn.image.gather4.cl.2d"
"llvm.amdgcn.image.gather4.cl.2darray"
"llvm.amdgcn.image.gather4.cl.cube"
"llvm.amdgcn.image.gather4.cl.o.2d"
"llvm.amdgcn.image.gather4.cl.o.2darray"
"llvm.amdgcn.image.gather4.cl.o.cube"
"llvm.amdgcn.image.gather4.cube"
"llvm.amdgcn.image.gather4.l.2d"
"llvm.amdgcn.image.gather4.l.2darray"
"llvm.amdgcn.image.gather4.l.cube"
"llvm.amdgcn.image.gather4.l.o.2d"
"llvm.amdgcn.image.gather4.l.o.2darray"
"llvm.amdgcn.image.gather4.l.o.cube"
"llvm.amdgcn.image.gather4.lz.2d"
"llvm.amdgcn.image.gather4.lz.2darray"
"llvm.amdgcn.image.gather4.lz.cube"
"llvm.amdgcn.image.gather4.lz.o.2d"
"llvm.amdgcn.image.gather4.lz.o.2darray"
"llvm.amdgcn.image.gather4.lz.o.cube"
"llvm.amdgcn.image.gather4.o.2d"
"llvm.amdgcn.image.gather4.o.2darray"
"llvm.amdgcn.image.gather4.o.cube"
"llvm.amdgcn.image.getlod.1d"
"llvm.amdgcn.image.getlod.1darray"
"llvm.amdgcn.image.getlod.2d"
"llvm.amdgcn.image.getlod.2darray"
"llvm.amdgcn.image.getlod.3d"
"llvm.amdgcn.image.getlod.cube"
"llvm.amdgcn.image.getresinfo.1d"
"llvm.amdgcn.image.getresinfo.1darray"
"llvm.amdgcn.image.getresinfo.2d"
"llvm.amdgcn.image.getresinfo.2darray"
"llvm.amdgcn.image.getresinfo.2darraymsaa"
"llvm.amdgcn.image.getresinfo.2dmsaa"
"llvm.amdgcn.image.getresinfo.3d"
"llvm.amdgcn.image.getresinfo.cube"
"llvm.amdgcn.image.load.1d"
"llvm.amdgcn.image.load.1darray"
"llvm.amdgcn.image.load.2d"
"llvm.amdgcn.image.load.2darray"
"llvm.amdgcn.image.load.2darraymsaa"
"llvm.amdgcn.image.load.2dmsaa"
"llvm.amdgcn.image.load.3d"
"llvm.amdgcn.image.load.cube"
"llvm.amdgcn.image.load.mip.1d"
"llvm.amdgcn.image.load.mip.1darray"
"llvm.amdgcn.image.load.mip.2d"
"llvm.amdgcn.image.load.mip.2darray"
"llvm.amdgcn.image.load.mip.3d"
"llvm.amdgcn.image.load.mip.cube"
"llvm.amdgcn.image.sample.1d"
"llvm.amdgcn.image.sample.1darray"
"llvm.amdgcn.image.sample.2d"
"llvm.amdgcn.image.sample.2darray"
"llvm.amdgcn.image.sample.3d"
"llvm.amdgcn.image.sample.b.1d"
"llvm.amdgcn.image.sample.b.1darray"
"llvm.amdgcn.image.sample.b.2d"
"llvm.amdgcn.image.sample.b.2darray"
"llvm.amdgcn.image.sample.b.3d"
"llvm.amdgcn.image.sample.b.cl.1d"
"llvm.amdgcn.image.sample.b.cl.1darray"
"llvm.amdgcn.image.sample.b.cl.2d"
"llvm.amdgcn.image.sample.b.cl.2darray"
"llvm.amdgcn.image.sample.b.cl.3d"
"llvm.amdgcn.image.sample.b.cl.cube"
"llvm.amdgcn.image.sample.b.cl.o.1d"
"llvm.amdgcn.image.sample.b.cl.o.1darray"
"llvm.amdgcn.image.sample.b.cl.o.2d"
"llvm.amdgcn.image.sample.b.cl.o.2darray"
"llvm.amdgcn.image.sample.b.cl.o.3d"
"llvm.amdgcn.image.sample.b.cl.o.cube"
"llvm.amdgcn.image.sample.b.cube"
"llvm.amdgcn.image.sample.b.o.1d"
"llvm.amdgcn.image.sample.b.o.1darray"
"llvm.amdgcn.image.sample.b.o.2d"
"llvm.amdgcn.image.sample.b.o.2darray"
"llvm.amdgcn.image.sample.b.o.3d"
"llvm.amdgcn.image.sample.b.o.cube"
"llvm.amdgcn.image.sample.c.1d"
"llvm.amdgcn.image.sample.c.1darray"
"llvm.amdgcn.image.sample.c.2d"
"llvm.amdgcn.image.sample.c.2darray"
"llvm.amdgcn.image.sample.c.3d"
"llvm.amdgcn.image.sample.c.b.1d"
"llvm.amdgcn.image.sample.c.b.1darray"
"llvm.amdgcn.image.sample.c.b.2d"
"llvm.amdgcn.image.sample.c.b.2darray"
"llvm.amdgcn.image.sample.c.b.3d"
"llvm.amdgcn.image.sample.c.b.cl.1d"
"llvm.amdgcn.image.sample.c.b.cl.1darray"
"llvm.amdgcn.image.sample.c.b.cl.2d"
"llvm.amdgcn.image.sample.c.b.cl.2darray"
"llvm.amdgcn.image.sample.c.b.cl.3d"
"llvm.amdgcn.image.sample.c.b.cl.cube"
"llvm.amdgcn.image.sample.c.b.cl.o.1d"
"llvm.amdgcn.image.sample.c.b.cl.o.1darray"
"llvm.amdgcn.image.sample.c.b.cl.o.2d"
"llvm.amdgcn.image.sample.c.b.cl.o.2darray"
"llvm.amdgcn.image.sample.c.b.cl.o.3d"
"llvm.amdgcn.image.sample.c.b.cl.o.cube"
"llvm.amdgcn.image.sample.c.b.cube"
"llvm.amdgcn.image.sample.c.b.o.1d"
"llvm.amdgcn.image.sample.c.b.o.1darray"
"llvm.amdgcn.image.sample.c.b.o.2d"
"llvm.amdgcn.image.sample.c.b.o.2darray"
"llvm.amdgcn.image.sample.c.b.o.3d"
"llvm.amdgcn.image.sample.c.b.o.cube"
"llvm.amdgcn.image.sample.c.cd.1d"
"llvm.amdgcn.image.sample.c.cd.1darray"
"llvm.amdgcn.image.sample.c.cd.2d"
"llvm.amdgcn.image.sample.c.cd.2darray"
"llvm.amdgcn.image.sample.c.cd.3d"
"llvm.amdgcn.image.sample.c.cd.cl.1d"
"llvm.amdgcn.image.sample.c.cd.cl.1darray"
"llvm.amdgcn.image.sample.c.cd.cl.2d"
"llvm.amdgcn.image.sample.c.cd.cl.2darray"
"llvm.amdgcn.image.sample.c.cd.cl.3d"
"llvm.amdgcn.image.sample.c.cd.cl.cube"
"llvm.amdgcn.image.sample.c.cd.cl.o.1d"
"llvm.amdgcn.image.sample.c.cd.cl.o.1darray"
"llvm.amdgcn.image.sample.c.cd.cl.o.2d"
"llvm.amdgcn.image.sample.c.cd.cl.o.2darray"
"llvm.amdgcn.image.sample.c.cd.cl.o.3d"
"llvm.amdgcn.image.sample.c.cd.cl.o.cube"
"llvm.amdgcn.image.sample.c.cd.cube"
"llvm.amdgcn.image.sample.c.cd.o.1d"
"llvm.amdgcn.image.sample.c.cd.o.1darray"
"llvm.amdgcn.image.sample.c.cd.o.2d"
"llvm.amdgcn.image.sample.c.cd.o.2darray"
"llvm.amdgcn.image.sample.c.cd.o.3d"
"llvm.amdgcn.image.sample.c.cd.o.cube"
"llvm.amdgcn.image.sample.c.cl.1d"
"llvm.amdgcn.image.sample.c.cl.1darray"
"llvm.amdgcn.image.sample.c.cl.2d"
"llvm.amdgcn.image.sample.c.cl.2darray"
"llvm.amdgcn.image.sample.c.cl.3d"
"llvm.amdgcn.image.sample.c.cl.cube"
"llvm.amdgcn.image.sample.c.cl.o.1d"
"llvm.amdgcn.image.sample.c.cl.o.1darray"
"llvm.amdgcn.image.sample.c.cl.o.2d"
"llvm.amdgcn.image.sample.c.cl.o.2darray"
"llvm.amdgcn.image.sample.c.cl.o.3d"
"llvm.amdgcn.image.sample.c.cl.o.cube"
"llvm.amdgcn.image.sample.c.cube"
"llvm.amdgcn.image.sample.c.d.1d"
"llvm.amdgcn.image.sample.c.d.1darray"
"llvm.amdgcn.image.sample.c.d.2d"
"llvm.amdgcn.image.sample.c.d.2darray"
"llvm.amdgcn.image.sample.c.d.3d"
"llvm.amdgcn.image.sample.c.d.cl.1d"
"llvm.amdgcn.image.sample.c.d.cl.1darray"
"llvm.amdgcn.image.sample.c.d.cl.2d"
"llvm.amdgcn.image.sample.c.d.cl.2darray"
"llvm.amdgcn.image.sample.c.d.cl.3d"
"llvm.amdgcn.image.sample.c.d.cl.cube"
"llvm.amdgcn.image.sample.c.d.cl.o.1d"
"llvm.amdgcn.image.sample.c.d.cl.o.1darray"
"llvm.amdgcn.image.sample.c.d.cl.o.2d"
"llvm.amdgcn.image.sample.c.d.cl.o.2darray"
"llvm.amdgcn.image.sample.c.d.cl.o.3d"
"llvm.amdgcn.image.sample.c.d.cl.o.cube"
"llvm.amdgcn.image.sample.c.d.cube"
"llvm.amdgcn.image.sample.c.d.o.1d"
"llvm.amdgcn.image.sample.c.d.o.1darray"
"llvm.amdgcn.image.sample.c.d.o.2d"
"llvm.amdgcn.image.sample.c.d.o.2darray"
"llvm.amdgcn.image.sample.c.d.o.3d"
"llvm.amdgcn.image.sample.c.d.o.cube"
"llvm.amdgcn.image.sample.c.l.1d"
"llvm.amdgcn.image.sample.c.l.1darray"
"llvm.amdgcn.image.sample.c.l.2d"
"llvm.amdgcn.image.sample.c.l.2darray"
"llvm.amdgcn.image.sample.c.l.3d"
"llvm.amdgcn.image.sample.c.l.cube"
"llvm.amdgcn.image.sample.c.l.o.1d"
"llvm.amdgcn.image.sample.c.l.o.1darray"
"llvm.amdgcn.image.sample.c.l.o.2d"
"llvm.amdgcn.image.sample.c.l.o.2darray"
"llvm.amdgcn.image.sample.c.l.o.3d"
"llvm.amdgcn.image.sample.c.l.o.cube"
"llvm.amdgcn.image.sample.c.lz.1d"
"llvm.amdgcn.image.sample.c.lz.1darray"
"llvm.amdgcn.image.sample.c.lz.2d"
"llvm.amdgcn.image.sample.c.lz.2darray"
"llvm.amdgcn.image.sample.c.lz.3d"
"llvm.amdgcn.image.sample.c.lz.cube"
"llvm.amdgcn.image.sample.c.lz.o.1d"
"llvm.amdgcn.image.sample.c.lz.o.1darray"
"llvm.amdgcn.image.sample.c.lz.o.2d"
"llvm.amdgcn.image.sample.c.lz.o.2darray"
"llvm.amdgcn.image.sample.c.lz.o.3d"
"llvm.amdgcn.image.sample.c.lz.o.cube"
"llvm.amdgcn.image.sample.c.o.1d"
"llvm.amdgcn.image.sample.c.o.1darray"
"llvm.amdgcn.image.sample.c.o.2d"
"llvm.amdgcn.image.sample.c.o.2darray"
"llvm.amdgcn.image.sample.c.o.3d"
"llvm.amdgcn.image.sample.c.o.cube"
"llvm.amdgcn.image.sample.cd.1d"
"llvm.amdgcn.image.sample.cd.1darray"
"llvm.amdgcn.image.sample.cd.2d"
"llvm.amdgcn.image.sample.cd.2darray"
"llvm.amdgcn.image.sample.cd.3d"
"llvm.amdgcn.image.sample.cd.cl.1d"
"llvm.amdgcn.image.sample.cd.cl.1darray"
"llvm.amdgcn.image.sample.cd.cl.2d"
"llvm.amdgcn.image.sample.cd.cl.2darray"
"llvm.amdgcn.image.sample.cd.cl.3d"
"llvm.amdgcn.image.sample.cd.cl.cube"
"llvm.amdgcn.image.sample.cd.cl.o.1d"
"llvm.amdgcn.image.sample.cd.cl.o.1darray"
"llvm.amdgcn.image.sample.cd.cl.o.2d"
"llvm.amdgcn.image.sample.cd.cl.o.2darray"
"llvm.amdgcn.image.sample.cd.cl.o.3d"
"llvm.amdgcn.image.sample.cd.cl.o.cube"
"llvm.amdgcn.image.sample.cd.cube"
"llvm.amdgcn.image.sample.cd.o.1d"
"llvm.amdgcn.image.sample.cd.o.1darray"
"llvm.amdgcn.image.sample.cd.o.2d"
"llvm.amdgcn.image.sample.cd.o.2darray"
"llvm.amdgcn.image.sample.cd.o.3d"
"llvm.amdgcn.image.sample.cd.o.cube"
"llvm.amdgcn.image.sample.cl.1d"
"llvm.amdgcn.image.sample.cl.1darray"
"llvm.amdgcn.image.sample.cl.2d"
"llvm.amdgcn.image.sample.cl.2darray"
"llvm.amdgcn.image.sample.cl.3d"
"llvm.amdgcn.image.sample.cl.cube"
"llvm.amdgcn.image.sample.cl.o.1d"
"llvm.amdgcn.image.sample.cl.o.1darray"
"llvm.amdgcn.image.sample.cl.o.2d"
"llvm.amdgcn.image.sample.cl.o.2darray"
"llvm.amdgcn.image.sample.cl.o.3d"
"llvm.amdgcn.image.sample.cl.o.cube"
"llvm.amdgcn.image.sample.cube"
"llvm.amdgcn.image.sample.d.1d"
"llvm.amdgcn.image.sample.d.1darray"
"llvm.amdgcn.image.sample.d.2d"
"llvm.amdgcn.image.sample.d.2darray"
"llvm.amdgcn.image.sample.d.3d"
"llvm.amdgcn.image.sample.d.cl.1d"
"llvm.amdgcn.image.sample.d.cl.1darray"
"llvm.amdgcn.image.sample.d.cl.2d"
"llvm.amdgcn.image.sample.d.cl.2darray"
"llvm.amdgcn.image.sample.d.cl.3d"
"llvm.amdgcn.image.sample.d.cl.cube"
"llvm.amdgcn.image.sample.d.cl.o.1d"
"llvm.amdgcn.image.sample.d.cl.o.1darray"
"llvm.amdgcn.image.sample.d.cl.o.2d"
"llvm.amdgcn.image.sample.d.cl.o.2darray"
"llvm.amdgcn.image.sample.d.cl.o.3d"
"llvm.amdgcn.image.sample.d.cl.o.cube"
"llvm.amdgcn.image.sample.d.cube"
"llvm.amdgcn.image.sample.d.o.1d"
"llvm.amdgcn.image.sample.d.o.1darray"
"llvm.amdgcn.image.sample.d.o.2d"
"llvm.amdgcn.image.sample.d.o.2darray"
"llvm.amdgcn.image.sample.d.o.3d"
"llvm.amdgcn.image.sample.d.o.cube"
"llvm.amdgcn.image.sample.l.1d"
"llvm.amdgcn.image.sample.l.1darray"
"llvm.amdgcn.image.sample.l.2d"
"llvm.amdgcn.image.sample.l.2darray"
"llvm.amdgcn.image.sample.l.3d"
"llvm.amdgcn.image.sample.l.cube"
"llvm.amdgcn.image.sample.l.o.1d"
"llvm.amdgcn.image.sample.l.o.1darray"
"llvm.amdgcn.image.sample.l.o.2d"
"llvm.amdgcn.image.sample.l.o.2darray"
"llvm.amdgcn.image.sample.l.o.3d"
"llvm.amdgcn.image.sample.l.o.cube"
"llvm.amdgcn.image.sample.lz.1d"
"llvm.amdgcn.image.sample.lz.1darray"
"llvm.amdgcn.image.sample.lz.2d"
"llvm.amdgcn.image.sample.lz.2darray"
"llvm.amdgcn.image.sample.lz.3d"
"llvm.amdgcn.image.sample.lz.cube"
"llvm.amdgcn.image.sample.lz.o.1d"
"llvm.amdgcn.image.sample.lz.o.1darray"
"llvm.amdgcn.image.sample.lz.o.2d"
"llvm.amdgcn.image.sample.lz.o.2darray"
"llvm.amdgcn.image.sample.lz.o.3d"
"llvm.amdgcn.image.sample.lz.o.cube"
"llvm.amdgcn.image.sample.o.1d"
"llvm.amdgcn.image.sample.o.1darray"
"llvm.amdgcn.image.sample.o.2d"
"llvm.amdgcn.image.sample.o.2darray"
"llvm.amdgcn.image.sample.o.3d"
"llvm.amdgcn.image.sample.o.cube"
"llvm.amdgcn.image.store.1d"
"llvm.amdgcn.image.store.1darray"
"llvm.amdgcn.image.store.2d"
"llvm.amdgcn.image.store.2darray"
"llvm.amdgcn.image.store.2darraymsaa"
"llvm.amdgcn.image.store.2dmsaa"
"llvm.amdgcn.image.store.3d"
"llvm.amdgcn.image.store.cube"
"llvm.amdgcn.image.store.mip.1d"
"llvm.amdgcn.image.store.mip.1darray"
"llvm.amdgcn.image.store.mip.2d"
"llvm.amdgcn.image.store.mip.2darray"
"llvm.amdgcn.image.store.mip.3d"
"llvm.amdgcn.image.store.mip.cube"
"llvm.amdgcn.implicit.buffer.ptr"
"llvm.amdgcn.implicitarg.ptr"
"llvm.amdgcn.init.exec.from.input"
"llvm.amdgcn.init.exec"
"llvm.amdgcn.interp.mov"
"llvm.amdgcn.interp.p1"
"llvm.amdgcn.interp.p2"
"llvm.amdgcn.kernarg.segment.ptr"
"llvm.amdgcn.kill"
"llvm.amdgcn.ldexp"
"llvm.amdgcn.lerp"
"llvm.amdgcn.log.clamp"
"llvm.amdgcn.loop"
"llvm.amdgcn.mbcnt.hi"
"llvm.amdgcn.mbcnt.lo"
"llvm.amdgcn.mov.dpp"
"llvm.amdgcn.mqsad.pk.u16.u8"
"llvm.amdgcn.mqsad.u32.u8"
"llvm.amdgcn.msad.u8"
"llvm.amdgcn.ps.live"
"llvm.amdgcn.qsad.pk.u16.u8"
"llvm.amdgcn.queue.ptr"
"llvm.amdgcn.rcp.legacy"
"llvm.amdgcn.rcp"
"llvm.amdgcn.readfirstlane"
"llvm.amdgcn.readlane"
"llvm.amdgcn.rsq.clamp"
"llvm.amdgcn.rsq.legacy"
"llvm.amdgcn.rsq"
"llvm.amdgcn.s.barrier"
"llvm.amdgcn.s.dcache.inv.vol"
"llvm.amdgcn.s.dcache.inv"
"llvm.amdgcn.s.dcache.wb.vol"
"llvm.amdgcn.s.dcache.wb"
"llvm.amdgcn.s.decperflevel"
"llvm.amdgcn.s.getpc"
"llvm.amdgcn.s.getreg"
"llvm.amdgcn.s.incperflevel"
"llvm.amdgcn.s.memrealtime"
"llvm.amdgcn.s.memtime"
"llvm.amdgcn.s.sendmsg"
"llvm.amdgcn.s.sendmsghalt"
"llvm.amdgcn.s.sleep"
"llvm.amdgcn.s.waitcnt"
"llvm.amdgcn.sad.hi.u8"
"llvm.amdgcn.sad.u16"
"llvm.amdgcn.sad.u8"
"llvm.amdgcn.sbfe"
"llvm.amdgcn.sdot2"
"llvm.amdgcn.sdot4"
"llvm.amdgcn.sdot8"
"llvm.amdgcn.set.inactive"
"llvm.amdgcn.sffbh"
"llvm.amdgcn.sin"
"llvm.amdgcn.tbuffer.load"
"llvm.amdgcn.tbuffer.store"
"llvm.amdgcn.trig.preop"
"llvm.amdgcn.ubfe"
"llvm.amdgcn.udot2"
"llvm.amdgcn.udot4"
"llvm.amdgcn.udot8"
"llvm.amdgcn.unreachable"
"llvm.amdgcn.update.dpp"
"llvm.amdgcn.wave.barrier"
"llvm.amdgcn.workgroup.id.x"
"llvm.amdgcn.workgroup.id.y"
"llvm.amdgcn.workgroup.id.z"
"llvm.amdgcn.workitem.id.x"
"llvm.amdgcn.workitem.id.y"
"llvm.amdgcn.workitem.id.z"
"llvm.amdgcn.wqm.vote"
"llvm.amdgcn.wqm"
"llvm.amdgcn.writelane"
"llvm.amdgcn.wwm"
"llvm.annotation"
"llvm.arm.cdp"
"llvm.arm.cdp2"
"llvm.arm.clrex"
"llvm.arm.crc32b"
"llvm.arm.crc32cb"
"llvm.arm.crc32ch"
"llvm.arm.crc32cw"
"llvm.arm.crc32h"
"llvm.arm.crc32w"
"llvm.arm.dbg"
"llvm.arm.dmb"
"llvm.arm.dsb"
"llvm.arm.get.fpscr"
"llvm.arm.hint"
"llvm.arm.isb"
"llvm.arm.ldaex"
"llvm.arm.ldaexd"
"llvm.arm.ldc"
"llvm.arm.ldc2"
"llvm.arm.ldc2l"
"llvm.arm.ldcl"
"llvm.arm.ldrex"
"llvm.arm.ldrexd"
"llvm.arm.mcr"
"llvm.arm.mcr2"
"llvm.arm.mcrr"
"llvm.arm.mcrr2"
"llvm.arm.mrc"
"llvm.arm.mrc2"
"llvm.arm.mrrc"
"llvm.arm.mrrc2"
"llvm.arm.neon.aesd"
"llvm.arm.neon.aese"
"llvm.arm.neon.aesimc"
"llvm.arm.neon.aesmc"
"llvm.arm.neon.sdot"
"llvm.arm.neon.sha1c"
"llvm.arm.neon.sha1h"
"llvm.arm.neon.sha1m"
"llvm.arm.neon.sha1p"
"llvm.arm.neon.sha1su0"
"llvm.arm.neon.sha1su1"
"llvm.arm.neon.sha256h"
"llvm.arm.neon.sha256h2"
"llvm.arm.neon.sha256su0"
"llvm.arm.neon.sha256su1"
"llvm.arm.neon.udot"
"llvm.arm.neon.vabds"
"llvm.arm.neon.vabdu"
"llvm.arm.neon.vabs"
"llvm.arm.neon.vacge"
"llvm.arm.neon.vacgt"
"llvm.arm.neon.vbsl"
"llvm.arm.neon.vcls"
"llvm.arm.neon.vcvtas"
"llvm.arm.neon.vcvtau"
"llvm.arm.neon.vcvtfp2fxs"
"llvm.arm.neon.vcvtfp2fxu"
"llvm.arm.neon.vcvtfp2hf"
"llvm.arm.neon.vcvtfxs2fp"
"llvm.arm.neon.vcvtfxu2fp"
"llvm.arm.neon.vcvthf2fp"
"llvm.arm.neon.vcvtms"
"llvm.arm.neon.vcvtmu"
"llvm.arm.neon.vcvtns"
"llvm.arm.neon.vcvtnu"
"llvm.arm.neon.vcvtps"
"llvm.arm.neon.vcvtpu"
"llvm.arm.neon.vhadds"
"llvm.arm.neon.vhaddu"
"llvm.arm.neon.vhsubs"
"llvm.arm.neon.vhsubu"
"llvm.arm.neon.vld1"
"llvm.arm.neon.vld1x2"
"llvm.arm.neon.vld1x3"
"llvm.arm.neon.vld1x4"
"llvm.arm.neon.vld2"
"llvm.arm.neon.vld2dup"
"llvm.arm.neon.vld2lane"
"llvm.arm.neon.vld3"
"llvm.arm.neon.vld3dup"
"llvm.arm.neon.vld3lane"
"llvm.arm.neon.vld4"
"llvm.arm.neon.vld4dup"
"llvm.arm.neon.vld4lane"
"llvm.arm.neon.vmaxnm"
"llvm.arm.neon.vmaxs"
"llvm.arm.neon.vmaxu"
"llvm.arm.neon.vminnm"
"llvm.arm.neon.vmins"
"llvm.arm.neon.vminu"
"llvm.arm.neon.vmullp"
"llvm.arm.neon.vmulls"
"llvm.arm.neon.vmullu"
"llvm.arm.neon.vmulp"
"llvm.arm.neon.vpadals"
"llvm.arm.neon.vpadalu"
"llvm.arm.neon.vpadd"
"llvm.arm.neon.vpaddls"
"llvm.arm.neon.vpaddlu"
"llvm.arm.neon.vpmaxs"
"llvm.arm.neon.vpmaxu"
"llvm.arm.neon.vpmins"
"llvm.arm.neon.vpminu"
"llvm.arm.neon.vqabs"
"llvm.arm.neon.vqadds"
"llvm.arm.neon.vqaddu"
"llvm.arm.neon.vqdmulh"
"llvm.arm.neon.vqdmull"
"llvm.arm.neon.vqmovns"
"llvm.arm.neon.vqmovnsu"
"llvm.arm.neon.vqmovnu"
"llvm.arm.neon.vqneg"
"llvm.arm.neon.vqrdmulh"
"llvm.arm.neon.vqrshiftns"
"llvm.arm.neon.vqrshiftnsu"
"llvm.arm.neon.vqrshiftnu"
"llvm.arm.neon.vqrshifts"
"llvm.arm.neon.vqrshiftu"
"llvm.arm.neon.vqshiftns"
"llvm.arm.neon.vqshiftnsu"
"llvm.arm.neon.vqshiftnu"
"llvm.arm.neon.vqshifts"
"llvm.arm.neon.vqshiftsu"
"llvm.arm.neon.vqshiftu"
"llvm.arm.neon.vqsubs"
"llvm.arm.neon.vqsubu"
"llvm.arm.neon.vraddhn"
"llvm.arm.neon.vrecpe"
"llvm.arm.neon.vrecps"
"llvm.arm.neon.vrhadds"
"llvm.arm.neon.vrhaddu"
"llvm.arm.neon.vrinta"
"llvm.arm.neon.vrintm"
"llvm.arm.neon.vrintn"
"llvm.arm.neon.vrintp"
"llvm.arm.neon.vrintx"
"llvm.arm.neon.vrintz"
"llvm.arm.neon.vrshiftn"
"llvm.arm.neon.vrshifts"
"llvm.arm.neon.vrshiftu"
"llvm.arm.neon.vrsqrte"
"llvm.arm.neon.vrsqrts"
"llvm.arm.neon.vrsubhn"
"llvm.arm.neon.vshiftins"
"llvm.arm.neon.vshifts"
"llvm.arm.neon.vshiftu"
"llvm.arm.neon.vst1"
"llvm.arm.neon.vst1x2"
"llvm.arm.neon.vst1x3"
"llvm.arm.neon.vst1x4"
"llvm.arm.neon.vst2"
"llvm.arm.neon.vst2lane"
"llvm.arm.neon.vst3"
"llvm.arm.neon.vst3lane"
"llvm.arm.neon.vst4"
"llvm.arm.neon.vst4lane"
"llvm.arm.neon.vtbl1"
"llvm.arm.neon.vtbl2"
"llvm.arm.neon.vtbl3"
"llvm.arm.neon.vtbl4"
"llvm.arm.neon.vtbx1"
"llvm.arm.neon.vtbx2"
"llvm.arm.neon.vtbx3"
"llvm.arm.neon.vtbx4"
"llvm.arm.qadd"
"llvm.arm.qadd16"
"llvm.arm.qadd8"
"llvm.arm.qasx"
"llvm.arm.qsax"
"llvm.arm.qsub"
"llvm.arm.qsub16"
"llvm.arm.qsub8"
"llvm.arm.sadd16"
"llvm.arm.sadd8"
"llvm.arm.sasx"
"llvm.arm.sel"
"llvm.arm.set.fpscr"
"llvm.arm.shadd16"
"llvm.arm.shadd8"
"llvm.arm.shasx"
"llvm.arm.shsax"
"llvm.arm.shsub16"
"llvm.arm.shsub8"
"llvm.arm.smlabb"
"llvm.arm.smlabt"
"llvm.arm.smlad"
"llvm.arm.smladx"
"llvm.arm.smlald"
"llvm.arm.smlaldx"
"llvm.arm.smlatb"
"llvm.arm.smlatt"
"llvm.arm.smlawb"
"llvm.arm.smlawt"
"llvm.arm.smlsd"
"llvm.arm.smlsdx"
"llvm.arm.smlsld"
"llvm.arm.smlsldx"
"llvm.arm.smuad"
"llvm.arm.smuadx"
"llvm.arm.smulbb"
"llvm.arm.smulbt"
"llvm.arm.smultb"
"llvm.arm.smultt"
"llvm.arm.smulwb"
"llvm.arm.smulwt"
"llvm.arm.smusd"
"llvm.arm.smusdx"
"llvm.arm.space"
"llvm.arm.ssat"
"llvm.arm.ssat16"
"llvm.arm.ssax"
"llvm.arm.ssub16"
"llvm.arm.ssub8"
"llvm.arm.stc"
"llvm.arm.stc2"
"llvm.arm.stc2l"
"llvm.arm.stcl"
"llvm.arm.stlex"
"llvm.arm.stlexd"
"llvm.arm.strex"
"llvm.arm.strexd"
"llvm.arm.sxtab16"
"llvm.arm.sxtb16"
"llvm.arm.uadd16"
"llvm.arm.uadd8"
"llvm.arm.uasx"
"llvm.arm.uhadd16"
"llvm.arm.uhadd8"
"llvm.arm.uhasx"
"llvm.arm.uhsax"
"llvm.arm.uhsub16"
"llvm.arm.uhsub8"
"llvm.arm.undefined"
"llvm.arm.uqadd16"
"llvm.arm.uqadd8"
"llvm.arm.uqasx"
"llvm.arm.uqsax"
"llvm.arm.uqsub16"
"llvm.arm.uqsub8"
"llvm.arm.usad8"
"llvm.arm.usada8"
"llvm.arm.usat"
"llvm.arm.usat16"
"llvm.arm.usax"
"llvm.arm.usub16"
"llvm.arm.usub8"
"llvm.arm.uxtab16"
"llvm.arm.uxtb16"
"llvm.arm.vcvtr"
"llvm.arm.vcvtru"
"llvm.assume"
"llvm.bitcode"
"llvm.bitreverse"
"llvm.bpf.load.byte"
"llvm.bpf.load.half"
"llvm.bpf.load.word"
"llvm.bpf.pseudo"
"llvm.bswap"
"llvm.canonicalize"
"llvm.ceil"
"llvm.clear_cache"
"llvm.codeview.annotation"
"llvm.convert.from.fp16"
"llvm.convert.to.fp16"
"llvm.copysign"
"llvm.coro.alloc"
"llvm.coro.alloca.alloc"
"llvm.coro.alloca.free"
"llvm.coro.alloca.get"
"llvm.coro.begin"
"llvm.coro.destroy"
"llvm.coro.done"
"llvm.coro.end"
"llvm.coro.frame"
"llvm.coro.free"
"llvm.coro.id.retcon.once"
"llvm.coro.id.retcon"
"llvm.coro.id"
"llvm.coro.noop"
"llvm.coro.param"
"llvm.coro.prepare.retcon"
"llvm.coro.promise"
"llvm.coro.resume"
"llvm.coro.save"
"llvm.coro.size"
"llvm.coro.subfn.addr"
"llvm.coro.suspend.retcon"
"llvm.coro.suspend"
"llvm.cos"
"llvm.ctlz."
"llvm.ctlz"
"llvm.ctpop"
"llvm.cttz"
"llvm.dbg."
"llvm.dbg.addr"
"llvm.dbg.cu"
"llvm.dbg.declare"
"llvm.dbg.label"
"llvm.dbg.value"
"llvm.debugtrap"
"llvm.donothing"
"llvm.eh.dwarf.cfa"
"llvm.eh.exceptioncode"
"llvm.eh.exceptionpointer"
"llvm.eh.return.i32"
"llvm.eh.return.i64"
"llvm.eh.sjlj.callsite"
"llvm.eh.sjlj.functioncontext"
"llvm.eh.sjlj.longjmp"
"llvm.eh.sjlj.lsda"
"llvm.eh.sjlj.setjmp"
"llvm.eh.sjlj.setup.dispatch"
"llvm.eh.typeid.for"
"llvm.eh.unwind.init"
"llvm.exp"
"llvm.exp2"
"llvm.expect"
"llvm.experimental.constrained.cos"
"llvm.experimental.constrained.exp"
"llvm.experimental.constrained.exp2"
"llvm.experimental.constrained.fadd"
"llvm.experimental.constrained.fdiv"
"llvm.experimental.constrained.fma"
"llvm.experimental.constrained.fmul"
"llvm.experimental.constrained.frem"
"llvm.experimental.constrained.fsub"
"llvm.experimental.constrained.log"
"llvm.experimental.constrained.log10"
"llvm.experimental.constrained.log2"
"llvm.experimental.constrained.nearbyint"
"llvm.experimental.constrained.pow"
"llvm.experimental.constrained.powi"
"llvm.experimental.constrained.rint"
"llvm.experimental.constrained.sin"
"llvm.experimental.constrained.sqrt"
"llvm.experimental.deoptimize"
"llvm.experimental.gc.relocate"
"llvm.experimental.gc.result"
"llvm.experimental.gc.statepoint"
"llvm.experimental.guard"
"llvm.experimental.patchpoint.i64"
"llvm.experimental.patchpoint.void"
"llvm.experimental.stackmap"
"llvm.experimental.vector.reduce.add"
"llvm.experimental.vector.reduce.and"
"llvm.experimental.vector.reduce.fadd"
"llvm.experimental.vector.reduce.fmax"
"llvm.experimental.vector.reduce.fmin"
"llvm.experimental.vector.reduce.fmul"
"llvm.experimental.vector.reduce.mul"
"llvm.experimental.vector.reduce.or"
"llvm.experimental.vector.reduce.smax"
"llvm.experimental.vector.reduce.smin"
"llvm.experimental.vector.reduce.umax"
"llvm.experimental.vector.reduce.umin"
"llvm.experimental.vector.reduce.xor"
"llvm.fabs"
"llvm.floor"
"llvm.flt.rounds"
"llvm.fma"
"llvm.fmuladd"
"llvm.frameaddress"
"llvm.fshl"
"llvm.fshr"
"llvm.gcread"
"llvm.gcroot parameter #1 must be an alloca."
"llvm.gcroot parameter #1 must either be a pointer alloca, or argument #2 must be a non-null constant."
"llvm.gcroot parameter #2 must be a constant."
"llvm.gcroot"
"llvm.gcwrite"
"llvm.get.dynamic.area.offset"
"llvm.hexagon.A2.abs"
"llvm.hexagon.A2.absp"
"llvm.hexagon.A2.abssat"
"llvm.hexagon.A2.add"
"llvm.hexagon.A2.addh.h16.hh"
"llvm.hexagon.A2.addh.h16.hl"
"llvm.hexagon.A2.addh.h16.lh"
"llvm.hexagon.A2.addh.h16.ll"
"llvm.hexagon.A2.addh.h16.sat.hh"
"llvm.hexagon.A2.addh.h16.sat.hl"
"llvm.hexagon.A2.addh.h16.sat.lh"
"llvm.hexagon.A2.addh.h16.sat.ll"
"llvm.hexagon.A2.addh.l16.hl"
"llvm.hexagon.A2.addh.l16.ll"
"llvm.hexagon.A2.addh.l16.sat.hl"
"llvm.hexagon.A2.addh.l16.sat.ll"
"llvm.hexagon.A2.addi"
"llvm.hexagon.A2.addp"
"llvm.hexagon.A2.addpsat"
"llvm.hexagon.A2.addsat"
"llvm.hexagon.A2.addsp"
"llvm.hexagon.A2.and"
"llvm.hexagon.A2.andir"
"llvm.hexagon.A2.andp"
"llvm.hexagon.A2.aslh"
"llvm.hexagon.A2.asrh"
"llvm.hexagon.A2.combine.hh"
"llvm.hexagon.A2.combine.hl"
"llvm.hexagon.A2.combine.lh"
"llvm.hexagon.A2.combine.ll"
"llvm.hexagon.A2.combineii"
"llvm.hexagon.A2.combinew"
"llvm.hexagon.A2.max"
"llvm.hexagon.A2.maxp"
"llvm.hexagon.A2.maxu"
"llvm.hexagon.A2.maxup"
"llvm.hexagon.A2.min"
"llvm.hexagon.A2.minp"
"llvm.hexagon.A2.minu"
"llvm.hexagon.A2.minup"
"llvm.hexagon.A2.neg"
"llvm.hexagon.A2.negp"
"llvm.hexagon.A2.negsat"
"llvm.hexagon.A2.not"
"llvm.hexagon.A2.notp"
"llvm.hexagon.A2.or"
"llvm.hexagon.A2.orir"
"llvm.hexagon.A2.orp"
"llvm.hexagon.A2.roundsat"
"llvm.hexagon.A2.sat"
"llvm.hexagon.A2.satb"
"llvm.hexagon.A2.sath"
"llvm.hexagon.A2.satub"
"llvm.hexagon.A2.satuh"
"llvm.hexagon.A2.sub"
"llvm.hexagon.A2.subh.h16.hh"
"llvm.hexagon.A2.subh.h16.hl"
"llvm.hexagon.A2.subh.h16.lh"
"llvm.hexagon.A2.subh.h16.ll"
"llvm.hexagon.A2.subh.h16.sat.hh"
"llvm.hexagon.A2.subh.h16.sat.hl"
"llvm.hexagon.A2.subh.h16.sat.lh"
"llvm.hexagon.A2.subh.h16.sat.ll"
"llvm.hexagon.A2.subh.l16.hl"
"llvm.hexagon.A2.subh.l16.ll"
"llvm.hexagon.A2.subh.l16.sat.hl"
"llvm.hexagon.A2.subh.l16.sat.ll"
"llvm.hexagon.A2.subp"
"llvm.hexagon.A2.subri"
"llvm.hexagon.A2.subsat"
"llvm.hexagon.A2.svaddh"
"llvm.hexagon.A2.svaddhs"
"llvm.hexagon.A2.svadduhs"
"llvm.hexagon.A2.svavgh"
"llvm.hexagon.A2.svavghs"
"llvm.hexagon.A2.svnavgh"
"llvm.hexagon.A2.svsubh"
"llvm.hexagon.A2.svsubhs"
"llvm.hexagon.A2.svsubuhs"
"llvm.hexagon.A2.swiz"
"llvm.hexagon.A2.sxtb"
"llvm.hexagon.A2.sxth"
"llvm.hexagon.A2.sxtw"
"llvm.hexagon.A2.tfr"
"llvm.hexagon.A2.tfrih"
"llvm.hexagon.A2.tfril"
"llvm.hexagon.A2.tfrp"
"llvm.hexagon.A2.tfrpi"
"llvm.hexagon.A2.tfrsi"
"llvm.hexagon.A2.vabsh"
"llvm.hexagon.A2.vabshsat"
"llvm.hexagon.A2.vabsw"
"llvm.hexagon.A2.vabswsat"
"llvm.hexagon.A2.vaddb.map"
"llvm.hexagon.A2.vaddh"
"llvm.hexagon.A2.vaddhs"
"llvm.hexagon.A2.vaddub"
"llvm.hexagon.A2.vaddubs"
"llvm.hexagon.A2.vadduhs"
"llvm.hexagon.A2.vaddw"
"llvm.hexagon.A2.vaddws"
"llvm.hexagon.A2.vavgh"
"llvm.hexagon.A2.vavghcr"
"llvm.hexagon.A2.vavghr"
"llvm.hexagon.A2.vavgub"
"llvm.hexagon.A2.vavgubr"
"llvm.hexagon.A2.vavguh"
"llvm.hexagon.A2.vavguhr"
"llvm.hexagon.A2.vavguw"
"llvm.hexagon.A2.vavguwr"
"llvm.hexagon.A2.vavgw"
"llvm.hexagon.A2.vavgwcr"
"llvm.hexagon.A2.vavgwr"
"llvm.hexagon.A2.vcmpbeq"
"llvm.hexagon.A2.vcmpbgtu"
"llvm.hexagon.A2.vcmpheq"
"llvm.hexagon.A2.vcmphgt"
"llvm.hexagon.A2.vcmphgtu"
"llvm.hexagon.A2.vcmpweq"
"llvm.hexagon.A2.vcmpwgt"
"llvm.hexagon.A2.vcmpwgtu"
"llvm.hexagon.A2.vconj"
"llvm.hexagon.A2.vmaxb"
"llvm.hexagon.A2.vmaxh"
"llvm.hexagon.A2.vmaxub"
"llvm.hexagon.A2.vmaxuh"
"llvm.hexagon.A2.vmaxuw"
"llvm.hexagon.A2.vmaxw"
"llvm.hexagon.A2.vminb"
"llvm.hexagon.A2.vminh"
"llvm.hexagon.A2.vminub"
"llvm.hexagon.A2.vminuh"
"llvm.hexagon.A2.vminuw"
"llvm.hexagon.A2.vminw"
"llvm.hexagon.A2.vnavgh"
"llvm.hexagon.A2.vnavghcr"
"llvm.hexagon.A2.vnavghr"
"llvm.hexagon.A2.vnavgw"
"llvm.hexagon.A2.vnavgwcr"
"llvm.hexagon.A2.vnavgwr"
"llvm.hexagon.A2.vraddub.acc"
"llvm.hexagon.A2.vraddub"
"llvm.hexagon.A2.vrsadub.acc"
"llvm.hexagon.A2.vrsadub"
"llvm.hexagon.A2.vsubb.map"
"llvm.hexagon.A2.vsubh"
"llvm.hexagon.A2.vsubhs"
"llvm.hexagon.A2.vsubub"
"llvm.hexagon.A2.vsububs"
"llvm.hexagon.A2.vsubuhs"
"llvm.hexagon.A2.vsubw"
"llvm.hexagon.A2.vsubws"
"llvm.hexagon.A2.xor"
"llvm.hexagon.A2.xorp"
"llvm.hexagon.A2.zxtb"
"llvm.hexagon.A2.zxth"
"llvm.hexagon.A4.andn"
"llvm.hexagon.A4.andnp"
"llvm.hexagon.A4.bitsplit"
"llvm.hexagon.A4.bitspliti"
"llvm.hexagon.A4.boundscheck"
"llvm.hexagon.A4.cmpbeq"
"llvm.hexagon.A4.cmpbeqi"
"llvm.hexagon.A4.cmpbgt"
"llvm.hexagon.A4.cmpbgti"
"llvm.hexagon.A4.cmpbgtu"
"llvm.hexagon.A4.cmpbgtui"
"llvm.hexagon.A4.cmpheq"
"llvm.hexagon.A4.cmpheqi"
"llvm.hexagon.A4.cmphgt"
"llvm.hexagon.A4.cmphgti"
"llvm.hexagon.A4.cmphgtu"
"llvm.hexagon.A4.cmphgtui"
"llvm.hexagon.A4.combineir"
"llvm.hexagon.A4.combineri"
"llvm.hexagon.A4.cround.ri"
"llvm.hexagon.A4.cround.rr"
"llvm.hexagon.A4.modwrapu"
"llvm.hexagon.A4.orn"
"llvm.hexagon.A4.ornp"
"llvm.hexagon.A4.rcmpeq"
"llvm.hexagon.A4.rcmpeqi"
"llvm.hexagon.A4.rcmpneq"
"llvm.hexagon.A4.rcmpneqi"
"llvm.hexagon.A4.round.ri.sat"
"llvm.hexagon.A4.round.ri"
"llvm.hexagon.A4.round.rr.sat"
"llvm.hexagon.A4.round.rr"
"llvm.hexagon.A4.tlbmatch"
"llvm.hexagon.A4.vcmpbeq.any"
"llvm.hexagon.A4.vcmpbeqi"
"llvm.hexagon.A4.vcmpbgt"
"llvm.hexagon.A4.vcmpbgti"
"llvm.hexagon.A4.vcmpbgtui"
"llvm.hexagon.A4.vcmpheqi"
"llvm.hexagon.A4.vcmphgti"
"llvm.hexagon.A4.vcmphgtui"
"llvm.hexagon.A4.vcmpweqi"
"llvm.hexagon.A4.vcmpwgti"
"llvm.hexagon.A4.vcmpwgtui"
"llvm.hexagon.A4.vrmaxh"
"llvm.hexagon.A4.vrmaxuh"
"llvm.hexagon.A4.vrmaxuw"
"llvm.hexagon.A4.vrmaxw"
"llvm.hexagon.A4.vrminh"
"llvm.hexagon.A4.vrminuh"
"llvm.hexagon.A4.vrminuw"
"llvm.hexagon.A4.vrminw"
"llvm.hexagon.A5.vaddhubs"
"llvm.hexagon.A6.vcmpbeq.notany.128B"
"llvm.hexagon.A6.vcmpbeq.notany"
"llvm.hexagon.C2.all8"
"llvm.hexagon.C2.and"
"llvm.hexagon.C2.andn"
"llvm.hexagon.C2.any8"
"llvm.hexagon.C2.bitsclr"
"llvm.hexagon.C2.bitsclri"
"llvm.hexagon.C2.bitsset"
"llvm.hexagon.C2.cmpeq"
"llvm.hexagon.C2.cmpeqi"
"llvm.hexagon.C2.cmpeqp"
"llvm.hexagon.C2.cmpgei"
"llvm.hexagon.C2.cmpgeui"
"llvm.hexagon.C2.cmpgt"
"llvm.hexagon.C2.cmpgti"
"llvm.hexagon.C2.cmpgtp"
"llvm.hexagon.C2.cmpgtu"
"llvm.hexagon.C2.cmpgtui"
"llvm.hexagon.C2.cmpgtup"
"llvm.hexagon.C2.cmplt"
"llvm.hexagon.C2.cmpltu"
"llvm.hexagon.C2.mask"
"llvm.hexagon.C2.mux"
"llvm.hexagon.C2.muxii"
"llvm.hexagon.C2.muxir"
"llvm.hexagon.C2.muxri"
"llvm.hexagon.C2.not"
"llvm.hexagon.C2.or"
"llvm.hexagon.C2.orn"
"llvm.hexagon.C2.pxfer.map"
"llvm.hexagon.C2.tfrpr"
"llvm.hexagon.C2.tfrrp"
"llvm.hexagon.C2.vitpack"
"llvm.hexagon.C2.vmux"
"llvm.hexagon.C2.xor"
"llvm.hexagon.C4.and.and"
"llvm.hexagon.C4.and.andn"
"llvm.hexagon.C4.and.or"
"llvm.hexagon.C4.and.orn"
"llvm.hexagon.C4.cmplte"
"llvm.hexagon.C4.cmpltei"
"llvm.hexagon.C4.cmplteu"
"llvm.hexagon.C4.cmplteui"
"llvm.hexagon.C4.cmpneq"
"llvm.hexagon.C4.cmpneqi"
"llvm.hexagon.C4.fastcorner9.not"
"llvm.hexagon.C4.fastcorner9"
"llvm.hexagon.C4.nbitsclr"
"llvm.hexagon.C4.nbitsclri"
"llvm.hexagon.C4.nbitsset"
"llvm.hexagon.C4.or.and"
"llvm.hexagon.C4.or.andn"
"llvm.hexagon.C4.or.or"
"llvm.hexagon.C4.or.orn"
"llvm.hexagon.circ.ldb"
"llvm.hexagon.circ.ldd"
"llvm.hexagon.circ.ldh"
"llvm.hexagon.circ.ldub"
"llvm.hexagon.circ.lduh"
"llvm.hexagon.circ.ldw"
"llvm.hexagon.circ.stb"
"llvm.hexagon.circ.std"
"llvm.hexagon.circ.sth"
"llvm.hexagon.circ.sthhi"
"llvm.hexagon.circ.stw"
"llvm.hexagon.F2.conv.d2df"
"llvm.hexagon.F2.conv.d2sf"
"llvm.hexagon.F2.conv.df2d.chop"
"llvm.hexagon.F2.conv.df2d"
"llvm.hexagon.F2.conv.df2sf"
"llvm.hexagon.F2.conv.df2ud.chop"
"llvm.hexagon.F2.conv.df2ud"
"llvm.hexagon.F2.conv.df2uw.chop"
"llvm.hexagon.F2.conv.df2uw"
"llvm.hexagon.F2.conv.df2w.chop"
"llvm.hexagon.F2.conv.df2w"
"llvm.hexagon.F2.conv.sf2d.chop"
"llvm.hexagon.F2.conv.sf2d"
"llvm.hexagon.F2.conv.sf2df"
"llvm.hexagon.F2.conv.sf2ud.chop"
"llvm.hexagon.F2.conv.sf2ud"
"llvm.hexagon.F2.conv.sf2uw.chop"
"llvm.hexagon.F2.conv.sf2uw"
"llvm.hexagon.F2.conv.sf2w.chop"
"llvm.hexagon.F2.conv.sf2w"
"llvm.hexagon.F2.conv.ud2df"
"llvm.hexagon.F2.conv.ud2sf"
"llvm.hexagon.F2.conv.uw2df"
"llvm.hexagon.F2.conv.uw2sf"
"llvm.hexagon.F2.conv.w2df"
"llvm.hexagon.F2.conv.w2sf"
"llvm.hexagon.F2.dfclass"
"llvm.hexagon.F2.dfcmpeq"
"llvm.hexagon.F2.dfcmpge"
"llvm.hexagon.F2.dfcmpgt"
"llvm.hexagon.F2.dfcmpuo"
"llvm.hexagon.F2.dfimm.n"
"llvm.hexagon.F2.dfimm.p"
"llvm.hexagon.F2.sfadd"
"llvm.hexagon.F2.sfclass"
"llvm.hexagon.F2.sfcmpeq"
"llvm.hexagon.F2.sfcmpge"
"llvm.hexagon.F2.sfcmpgt"
"llvm.hexagon.F2.sfcmpuo"
"llvm.hexagon.F2.sffixupd"
"llvm.hexagon.F2.sffixupn"
"llvm.hexagon.F2.sffixupr"
"llvm.hexagon.F2.sffma.lib"
"llvm.hexagon.F2.sffma.sc"
"llvm.hexagon.F2.sffma"
"llvm.hexagon.F2.sffms.lib"
"llvm.hexagon.F2.sffms"
"llvm.hexagon.F2.sfimm.n"
"llvm.hexagon.F2.sfimm.p"
"llvm.hexagon.F2.sfmax"
"llvm.hexagon.F2.sfmin"
"llvm.hexagon.F2.sfmpy"
"llvm.hexagon.F2.sfsub"
"llvm.hexagon.L2.loadrb.pbr"
"llvm.hexagon.L2.loadrb.pci"
"llvm.hexagon.L2.loadrb.pcr"
"llvm.hexagon.L2.loadrd.pbr"
"llvm.hexagon.L2.loadrd.pci"
"llvm.hexagon.L2.loadrd.pcr"
"llvm.hexagon.L2.loadrh.pbr"
"llvm.hexagon.L2.loadrh.pci"
"llvm.hexagon.L2.loadrh.pcr"
"llvm.hexagon.L2.loadri.pbr"
"llvm.hexagon.L2.loadri.pci"
"llvm.hexagon.L2.loadri.pcr"
"llvm.hexagon.L2.loadrub.pbr"
"llvm.hexagon.L2.loadrub.pci"
"llvm.hexagon.L2.loadrub.pcr"
"llvm.hexagon.L2.loadruh.pbr"
"llvm.hexagon.L2.loadruh.pci"
"llvm.hexagon.L2.loadruh.pcr"
"llvm.hexagon.L2.loadw.locked"
"llvm.hexagon.L4.loadd.locked"
"llvm.hexagon.M2.acci"
"llvm.hexagon.M2.accii"
"llvm.hexagon.M2.cmaci.s0"
"llvm.hexagon.M2.cmacr.s0"
"llvm.hexagon.M2.cmacs.s0"
"llvm.hexagon.M2.cmacs.s1"
"llvm.hexagon.M2.cmacsc.s0"
"llvm.hexagon.M2.cmacsc.s1"
"llvm.hexagon.M2.cmpyi.s0"
"llvm.hexagon.M2.cmpyr.s0"
"llvm.hexagon.M2.cmpyrs.s0"
"llvm.hexagon.M2.cmpyrs.s1"
"llvm.hexagon.M2.cmpyrsc.s0"
"llvm.hexagon.M2.cmpyrsc.s1"
"llvm.hexagon.M2.cmpys.s0"
"llvm.hexagon.M2.cmpys.s1"
"llvm.hexagon.M2.cmpysc.s0"
"llvm.hexagon.M2.cmpysc.s1"
"llvm.hexagon.M2.cnacs.s0"
"llvm.hexagon.M2.cnacs.s1"
"llvm.hexagon.M2.cnacsc.s0"
"llvm.hexagon.M2.cnacsc.s1"
"llvm.hexagon.M2.dpmpyss.acc.s0"
"llvm.hexagon.M2.dpmpyss.nac.s0"
"llvm.hexagon.M2.dpmpyss.rnd.s0"
"llvm.hexagon.M2.dpmpyss.s0"
"llvm.hexagon.M2.dpmpyuu.acc.s0"
"llvm.hexagon.M2.dpmpyuu.nac.s0"
"llvm.hexagon.M2.dpmpyuu.s0"
"llvm.hexagon.M2.hmmpyh.rs1"
"llvm.hexagon.M2.hmmpyh.s1"
"llvm.hexagon.M2.hmmpyl.rs1"
"llvm.hexagon.M2.hmmpyl.s1"
"llvm.hexagon.M2.maci"
"llvm.hexagon.M2.macsin"
"llvm.hexagon.M2.macsip"
"llvm.hexagon.M2.mmachs.rs0"
"llvm.hexagon.M2.mmachs.rs1"
"llvm.hexagon.M2.mmachs.s0"
"llvm.hexagon.M2.mmachs.s1"
"llvm.hexagon.M2.mmacls.rs0"
"llvm.hexagon.M2.mmacls.rs1"
"llvm.hexagon.M2.mmacls.s0"
"llvm.hexagon.M2.mmacls.s1"
"llvm.hexagon.M2.mmacuhs.rs0"
"llvm.hexagon.M2.mmacuhs.rs1"
"llvm.hexagon.M2.mmacuhs.s0"
"llvm.hexagon.M2.mmacuhs.s1"
"llvm.hexagon.M2.mmaculs.rs0"
"llvm.hexagon.M2.mmaculs.rs1"
"llvm.hexagon.M2.mmaculs.s0"
"llvm.hexagon.M2.mmaculs.s1"
"llvm.hexagon.M2.mmpyh.rs0"
"llvm.hexagon.M2.mmpyh.rs1"
"llvm.hexagon.M2.mmpyh.s0"
"llvm.hexagon.M2.mmpyh.s1"
"llvm.hexagon.M2.mmpyl.rs0"
"llvm.hexagon.M2.mmpyl.rs1"
"llvm.hexagon.M2.mmpyl.s0"
"llvm.hexagon.M2.mmpyl.s1"
"llvm.hexagon.M2.mmpyuh.rs0"
"llvm.hexagon.M2.mmpyuh.rs1"
"llvm.hexagon.M2.mmpyuh.s0"
"llvm.hexagon.M2.mmpyuh.s1"
"llvm.hexagon.M2.mmpyul.rs0"
"llvm.hexagon.M2.mmpyul.rs1"
"llvm.hexagon.M2.mmpyul.s0"
"llvm.hexagon.M2.mmpyul.s1"
"llvm.hexagon.M2.mpy.acc.hh.s0"
"llvm.hexagon.M2.mpy.acc.hh.s1"
"llvm.hexagon.M2.mpy.acc.hl.s0"
"llvm.hexagon.M2.mpy.acc.hl.s1"
"llvm.hexagon.M2.mpy.acc.lh.s0"
"llvm.hexagon.M2.mpy.acc.lh.s1"
"llvm.hexagon.M2.mpy.acc.ll.s0"
"llvm.hexagon.M2.mpy.acc.ll.s1"
"llvm.hexagon.M2.mpy.acc.sat.hh.s0"
"llvm.hexagon.M2.mpy.acc.sat.hh.s1"
"llvm.hexagon.M2.mpy.acc.sat.hl.s0"
"llvm.hexagon.M2.mpy.acc.sat.hl.s1"
"llvm.hexagon.M2.mpy.acc.sat.lh.s0"
"llvm.hexagon.M2.mpy.acc.sat.lh.s1"
"llvm.hexagon.M2.mpy.acc.sat.ll.s0"
"llvm.hexagon.M2.mpy.acc.sat.ll.s1"
"llvm.hexagon.M2.mpy.hh.s0"
"llvm.hexagon.M2.mpy.hh.s1"
"llvm.hexagon.M2.mpy.hl.s0"
"llvm.hexagon.M2.mpy.hl.s1"
"llvm.hexagon.M2.mpy.lh.s0"
"llvm.hexagon.M2.mpy.lh.s1"
"llvm.hexagon.M2.mpy.ll.s0"
"llvm.hexagon.M2.mpy.ll.s1"
"llvm.hexagon.M2.mpy.nac.hh.s0"
"llvm.hexagon.M2.mpy.nac.hh.s1"
"llvm.hexagon.M2.mpy.nac.hl.s0"
"llvm.hexagon.M2.mpy.nac.hl.s1"
"llvm.hexagon.M2.mpy.nac.lh.s0"
"llvm.hexagon.M2.mpy.nac.lh.s1"
"llvm.hexagon.M2.mpy.nac.ll.s0"
"llvm.hexagon.M2.mpy.nac.ll.s1"
"llvm.hexagon.M2.mpy.nac.sat.hh.s0"
"llvm.hexagon.M2.mpy.nac.sat.hh.s1"
"llvm.hexagon.M2.mpy.nac.sat.hl.s0"
"llvm.hexagon.M2.mpy.nac.sat.hl.s1"
"llvm.hexagon.M2.mpy.nac.sat.lh.s0"
"llvm.hexagon.M2.mpy.nac.sat.lh.s1"
"llvm.hexagon.M2.mpy.nac.sat.ll.s0"
"llvm.hexagon.M2.mpy.nac.sat.ll.s1"
"llvm.hexagon.M2.mpy.rnd.hh.s0"
"llvm.hexagon.M2.mpy.rnd.hh.s1"
"llvm.hexagon.M2.mpy.rnd.hl.s0"
"llvm.hexagon.M2.mpy.rnd.hl.s1"
"llvm.hexagon.M2.mpy.rnd.lh.s0"
"llvm.hexagon.M2.mpy.rnd.lh.s1"
"llvm.hexagon.M2.mpy.rnd.ll.s0"
"llvm.hexagon.M2.mpy.rnd.ll.s1"
"llvm.hexagon.M2.mpy.sat.hh.s0"
"llvm.hexagon.M2.mpy.sat.hh.s1"
"llvm.hexagon.M2.mpy.sat.hl.s0"
"llvm.hexagon.M2.mpy.sat.hl.s1"
"llvm.hexagon.M2.mpy.sat.lh.s0"
"llvm.hexagon.M2.mpy.sat.lh.s1"
"llvm.hexagon.M2.mpy.sat.ll.s0"
"llvm.hexagon.M2.mpy.sat.ll.s1"
"llvm.hexagon.M2.mpy.sat.rnd.hh.s0"
"llvm.hexagon.M2.mpy.sat.rnd.hh.s1"
"llvm.hexagon.M2.mpy.sat.rnd.hl.s0"
"llvm.hexagon.M2.mpy.sat.rnd.hl.s1"
"llvm.hexagon.M2.mpy.sat.rnd.lh.s0"
"llvm.hexagon.M2.mpy.sat.rnd.lh.s1"
"llvm.hexagon.M2.mpy.sat.rnd.ll.s0"
"llvm.hexagon.M2.mpy.sat.rnd.ll.s1"
"llvm.hexagon.M2.mpy.up.s1.sat"
"llvm.hexagon.M2.mpy.up.s1"
"llvm.hexagon.M2.mpy.up"
"llvm.hexagon.M2.mpyd.acc.hh.s0"
"llvm.hexagon.M2.mpyd.acc.hh.s1"
"llvm.hexagon.M2.mpyd.acc.hl.s0"
"llvm.hexagon.M2.mpyd.acc.hl.s1"
"llvm.hexagon.M2.mpyd.acc.lh.s0"
"llvm.hexagon.M2.mpyd.acc.lh.s1"
"llvm.hexagon.M2.mpyd.acc.ll.s0"
"llvm.hexagon.M2.mpyd.acc.ll.s1"
"llvm.hexagon.M2.mpyd.hh.s0"
"llvm.hexagon.M2.mpyd.hh.s1"
"llvm.hexagon.M2.mpyd.hl.s0"
"llvm.hexagon.M2.mpyd.hl.s1"
"llvm.hexagon.M2.mpyd.lh.s0"
"llvm.hexagon.M2.mpyd.lh.s1"
"llvm.hexagon.M2.mpyd.ll.s0"
"llvm.hexagon.M2.mpyd.ll.s1"
"llvm.hexagon.M2.mpyd.nac.hh.s0"
"llvm.hexagon.M2.mpyd.nac.hh.s1"
"llvm.hexagon.M2.mpyd.nac.hl.s0"
"llvm.hexagon.M2.mpyd.nac.hl.s1"
"llvm.hexagon.M2.mpyd.nac.lh.s0"
"llvm.hexagon.M2.mpyd.nac.lh.s1"
"llvm.hexagon.M2.mpyd.nac.ll.s0"
"llvm.hexagon.M2.mpyd.nac.ll.s1"
"llvm.hexagon.M2.mpyd.rnd.hh.s0"
"llvm.hexagon.M2.mpyd.rnd.hh.s1"
"llvm.hexagon.M2.mpyd.rnd.hl.s0"
"llvm.hexagon.M2.mpyd.rnd.hl.s1"
"llvm.hexagon.M2.mpyd.rnd.lh.s0"
"llvm.hexagon.M2.mpyd.rnd.lh.s1"
"llvm.hexagon.M2.mpyd.rnd.ll.s0"
"llvm.hexagon.M2.mpyd.rnd.ll.s1"
"llvm.hexagon.M2.mpyi"
"llvm.hexagon.M2.mpysmi"
"llvm.hexagon.M2.mpysu.up"
"llvm.hexagon.M2.mpyu.acc.hh.s0"
"llvm.hexagon.M2.mpyu.acc.hh.s1"
"llvm.hexagon.M2.mpyu.acc.hl.s0"
"llvm.hexagon.M2.mpyu.acc.hl.s1"
"llvm.hexagon.M2.mpyu.acc.lh.s0"
"llvm.hexagon.M2.mpyu.acc.lh.s1"
"llvm.hexagon.M2.mpyu.acc.ll.s0"
"llvm.hexagon.M2.mpyu.acc.ll.s1"
"llvm.hexagon.M2.mpyu.hh.s0"
"llvm.hexagon.M2.mpyu.hh.s1"
"llvm.hexagon.M2.mpyu.hl.s0"
"llvm.hexagon.M2.mpyu.hl.s1"
"llvm.hexagon.M2.mpyu.lh.s0"
"llvm.hexagon.M2.mpyu.lh.s1"
"llvm.hexagon.M2.mpyu.ll.s0"
"llvm.hexagon.M2.mpyu.ll.s1"
"llvm.hexagon.M2.mpyu.nac.hh.s0"
"llvm.hexagon.M2.mpyu.nac.hh.s1"
"llvm.hexagon.M2.mpyu.nac.hl.s0"
"llvm.hexagon.M2.mpyu.nac.hl.s1"
"llvm.hexagon.M2.mpyu.nac.lh.s0"
"llvm.hexagon.M2.mpyu.nac.lh.s1"
"llvm.hexagon.M2.mpyu.nac.ll.s0"
"llvm.hexagon.M2.mpyu.nac.ll.s1"
"llvm.hexagon.M2.mpyu.up"
"llvm.hexagon.M2.mpyud.acc.hh.s0"
"llvm.hexagon.M2.mpyud.acc.hh.s1"
"llvm.hexagon.M2.mpyud.acc.hl.s0"
"llvm.hexagon.M2.mpyud.acc.hl.s1"
"llvm.hexagon.M2.mpyud.acc.lh.s0"
"llvm.hexagon.M2.mpyud.acc.lh.s1"
"llvm.hexagon.M2.mpyud.acc.ll.s0"
"llvm.hexagon.M2.mpyud.acc.ll.s1"
"llvm.hexagon.M2.mpyud.hh.s0"
"llvm.hexagon.M2.mpyud.hh.s1"
"llvm.hexagon.M2.mpyud.hl.s0"
"llvm.hexagon.M2.mpyud.hl.s1"
"llvm.hexagon.M2.mpyud.lh.s0"
"llvm.hexagon.M2.mpyud.lh.s1"
"llvm.hexagon.M2.mpyud.ll.s0"
"llvm.hexagon.M2.mpyud.ll.s1"
"llvm.hexagon.M2.mpyud.nac.hh.s0"
"llvm.hexagon.M2.mpyud.nac.hh.s1"
"llvm.hexagon.M2.mpyud.nac.hl.s0"
"llvm.hexagon.M2.mpyud.nac.hl.s1"
"llvm.hexagon.M2.mpyud.nac.lh.s0"
"llvm.hexagon.M2.mpyud.nac.lh.s1"
"llvm.hexagon.M2.mpyud.nac.ll.s0"
"llvm.hexagon.M2.mpyud.nac.ll.s1"
"llvm.hexagon.M2.mpyui"
"llvm.hexagon.M2.nacci"
"llvm.hexagon.M2.naccii"
"llvm.hexagon.M2.subacc"
"llvm.hexagon.M2.vabsdiffh"
"llvm.hexagon.M2.vabsdiffw"
"llvm.hexagon.M2.vcmac.s0.sat.i"
"llvm.hexagon.M2.vcmac.s0.sat.r"
"llvm.hexagon.M2.vcmpy.s0.sat.i"
"llvm.hexagon.M2.vcmpy.s0.sat.r"
"llvm.hexagon.M2.vcmpy.s1.sat.i"
"llvm.hexagon.M2.vcmpy.s1.sat.r"
"llvm.hexagon.M2.vdmacs.s0"
"llvm.hexagon.M2.vdmacs.s1"
"llvm.hexagon.M2.vdmpyrs.s0"
"llvm.hexagon.M2.vdmpyrs.s1"
"llvm.hexagon.M2.vdmpys.s0"
"llvm.hexagon.M2.vdmpys.s1"
"llvm.hexagon.M2.vmac2"
"llvm.hexagon.M2.vmac2es.s0"
"llvm.hexagon.M2.vmac2es.s1"
"llvm.hexagon.M2.vmac2es"
"llvm.hexagon.M2.vmac2s.s0"
"llvm.hexagon.M2.vmac2s.s1"
"llvm.hexagon.M2.vmac2su.s0"
"llvm.hexagon.M2.vmac2su.s1"
"llvm.hexagon.M2.vmpy2es.s0"
"llvm.hexagon.M2.vmpy2es.s1"
"llvm.hexagon.M2.vmpy2s.s0"
"llvm.hexagon.M2.vmpy2s.s0pack"
"llvm.hexagon.M2.vmpy2s.s1"
"llvm.hexagon.M2.vmpy2s.s1pack"
"llvm.hexagon.M2.vmpy2su.s0"
"llvm.hexagon.M2.vmpy2su.s1"
"llvm.hexagon.M2.vraddh"
"llvm.hexagon.M2.vradduh"
"llvm.hexagon.M2.vrcmaci.s0"
"llvm.hexagon.M2.vrcmaci.s0c"
"llvm.hexagon.M2.vrcmacr.s0"
"llvm.hexagon.M2.vrcmacr.s0c"
"llvm.hexagon.M2.vrcmpyi.s0"
"llvm.hexagon.M2.vrcmpyi.s0c"
"llvm.hexagon.M2.vrcmpyr.s0"
"llvm.hexagon.M2.vrcmpyr.s0c"
"llvm.hexagon.M2.vrcmpys.acc.s1"
"llvm.hexagon.M2.vrcmpys.s1"
"llvm.hexagon.M2.vrcmpys.s1rp"
"llvm.hexagon.M2.vrmac.s0"
"llvm.hexagon.M2.vrmpy.s0"
"llvm.hexagon.M2.xor.xacc"
"llvm.hexagon.M4.and.and"
"llvm.hexagon.M4.and.andn"
"llvm.hexagon.M4.and.or"
"llvm.hexagon.M4.and.xor"
"llvm.hexagon.M4.cmpyi.wh"
"llvm.hexagon.M4.cmpyi.whc"
"llvm.hexagon.M4.cmpyr.wh"
"llvm.hexagon.M4.cmpyr.whc"
"llvm.hexagon.M4.mac.up.s1.sat"
"llvm.hexagon.M4.mpyri.addi"
"llvm.hexagon.M4.mpyri.addr.u2"
"llvm.hexagon.M4.mpyri.addr"
"llvm.hexagon.M4.mpyrr.addi"
"llvm.hexagon.M4.mpyrr.addr"
"llvm.hexagon.M4.nac.up.s1.sat"
"llvm.hexagon.M4.or.and"
"llvm.hexagon.M4.or.andn"
"llvm.hexagon.M4.or.or"
"llvm.hexagon.M4.or.xor"
"llvm.hexagon.M4.pmpyw.acc"
"llvm.hexagon.M4.pmpyw"
"llvm.hexagon.M4.vpmpyh.acc"
"llvm.hexagon.M4.vpmpyh"
"llvm.hexagon.M4.vrmpyeh.acc.s0"
"llvm.hexagon.M4.vrmpyeh.acc.s1"
"llvm.hexagon.M4.vrmpyeh.s0"
"llvm.hexagon.M4.vrmpyeh.s1"
"llvm.hexagon.M4.vrmpyoh.acc.s0"
"llvm.hexagon.M4.vrmpyoh.acc.s1"
"llvm.hexagon.M4.vrmpyoh.s0"
"llvm.hexagon.M4.vrmpyoh.s1"
"llvm.hexagon.M4.xor.and"
"llvm.hexagon.M4.xor.andn"
"llvm.hexagon.M4.xor.or"
"llvm.hexagon.M4.xor.xacc"
"llvm.hexagon.M5.vdmacbsu"
"llvm.hexagon.M5.vdmpybsu"
"llvm.hexagon.M5.vmacbsu"
"llvm.hexagon.M5.vmacbuu"
"llvm.hexagon.M5.vmpybsu"
"llvm.hexagon.M5.vmpybuu"
"llvm.hexagon.M5.vrmacbsu"
"llvm.hexagon.M5.vrmacbuu"
"llvm.hexagon.M5.vrmpybsu"
"llvm.hexagon.M5.vrmpybuu"
"llvm.hexagon.M6.vabsdiffb"
"llvm.hexagon.M6.vabsdiffub"
"llvm.hexagon.mm256i.vaddw"
"llvm.hexagon.prefetch"
"llvm.hexagon.S2.addasl.rrri"
"llvm.hexagon.S2.asl.i.p.acc"
"llvm.hexagon.S2.asl.i.p.and"
"llvm.hexagon.S2.asl.i.p.nac"
"llvm.hexagon.S2.asl.i.p.or"
"llvm.hexagon.S2.asl.i.p.xacc"
"llvm.hexagon.S2.asl.i.p"
"llvm.hexagon.S2.asl.i.r.acc"
"llvm.hexagon.S2.asl.i.r.and"
"llvm.hexagon.S2.asl.i.r.nac"
"llvm.hexagon.S2.asl.i.r.or"
"llvm.hexagon.S2.asl.i.r.sat"
"llvm.hexagon.S2.asl.i.r.xacc"
"llvm.hexagon.S2.asl.i.r"
"llvm.hexagon.S2.asl.i.vh"
"llvm.hexagon.S2.asl.i.vw"
"llvm.hexagon.S2.asl.r.p.acc"
"llvm.hexagon.S2.asl.r.p.and"
"llvm.hexagon.S2.asl.r.p.nac"
"llvm.hexagon.S2.asl.r.p.or"
"llvm.hexagon.S2.asl.r.p.xor"
"llvm.hexagon.S2.asl.r.p"
"llvm.hexagon.S2.asl.r.r.acc"
"llvm.hexagon.S2.asl.r.r.and"
"llvm.hexagon.S2.asl.r.r.nac"
"llvm.hexagon.S2.asl.r.r.or"
"llvm.hexagon.S2.asl.r.r.sat"
"llvm.hexagon.S2.asl.r.r"
"llvm.hexagon.S2.asl.r.vh"
"llvm.hexagon.S2.asl.r.vw"
"llvm.hexagon.S2.asr.i.p.acc"
"llvm.hexagon.S2.asr.i.p.and"
"llvm.hexagon.S2.asr.i.p.nac"
"llvm.hexagon.S2.asr.i.p.or"
"llvm.hexagon.S2.asr.i.p.rnd.goodsyntax"
"llvm.hexagon.S2.asr.i.p.rnd"
"llvm.hexagon.S2.asr.i.p"
"llvm.hexagon.S2.asr.i.r.acc"
"llvm.hexagon.S2.asr.i.r.and"
"llvm.hexagon.S2.asr.i.r.nac"
"llvm.hexagon.S2.asr.i.r.or"
"llvm.hexagon.S2.asr.i.r.rnd.goodsyntax"
"llvm.hexagon.S2.asr.i.r.rnd"
"llvm.hexagon.S2.asr.i.r"
"llvm.hexagon.S2.asr.i.svw.trun"
"llvm.hexagon.S2.asr.i.vh"
"llvm.hexagon.S2.asr.i.vw"
"llvm.hexagon.S2.asr.r.p.acc"
"llvm.hexagon.S2.asr.r.p.and"
"llvm.hexagon.S2.asr.r.p.nac"
"llvm.hexagon.S2.asr.r.p.or"
"llvm.hexagon.S2.asr.r.p.xor"
"llvm.hexagon.S2.asr.r.p"
"llvm.hexagon.S2.asr.r.r.acc"
"llvm.hexagon.S2.asr.r.r.and"
"llvm.hexagon.S2.asr.r.r.nac"
"llvm.hexagon.S2.asr.r.r.or"
"llvm.hexagon.S2.asr.r.r.sat"
"llvm.hexagon.S2.asr.r.r"
"llvm.hexagon.S2.asr.r.svw.trun"
"llvm.hexagon.S2.asr.r.vh"
"llvm.hexagon.S2.asr.r.vw"
"llvm.hexagon.S2.brev"
"llvm.hexagon.S2.brevp"
"llvm.hexagon.S2.cabacencbin"
"llvm.hexagon.S2.cl0"
"llvm.hexagon.S2.cl0p"
"llvm.hexagon.S2.cl1"
"llvm.hexagon.S2.cl1p"
"llvm.hexagon.S2.clb"
"llvm.hexagon.S2.clbnorm"
"llvm.hexagon.S2.clbp"
"llvm.hexagon.S2.clrbit.i"
"llvm.hexagon.S2.clrbit.r"
"llvm.hexagon.S2.ct0"
"llvm.hexagon.S2.ct0p"
"llvm.hexagon.S2.ct1"
"llvm.hexagon.S2.ct1p"
"llvm.hexagon.S2.deinterleave"
"llvm.hexagon.S2.extractu.rp"
"llvm.hexagon.S2.extractu"
"llvm.hexagon.S2.extractup.rp"
"llvm.hexagon.S2.extractup"
"llvm.hexagon.S2.insert.rp"
"llvm.hexagon.S2.insert"
"llvm.hexagon.S2.insertp.rp"
"llvm.hexagon.S2.insertp"
"llvm.hexagon.S2.interleave"
"llvm.hexagon.S2.lfsp"
"llvm.hexagon.S2.lsl.r.p.acc"
"llvm.hexagon.S2.lsl.r.p.and"
"llvm.hexagon.S2.lsl.r.p.nac"
"llvm.hexagon.S2.lsl.r.p.or"
"llvm.hexagon.S2.lsl.r.p.xor"
"llvm.hexagon.S2.lsl.r.p"
"llvm.hexagon.S2.lsl.r.r.acc"
"llvm.hexagon.S2.lsl.r.r.and"
"llvm.hexagon.S2.lsl.r.r.nac"
"llvm.hexagon.S2.lsl.r.r.or"
"llvm.hexagon.S2.lsl.r.r"
"llvm.hexagon.S2.lsl.r.vh"
"llvm.hexagon.S2.lsl.r.vw"
"llvm.hexagon.S2.lsr.i.p.acc"
"llvm.hexagon.S2.lsr.i.p.and"
"llvm.hexagon.S2.lsr.i.p.nac"
"llvm.hexagon.S2.lsr.i.p.or"
"llvm.hexagon.S2.lsr.i.p.xacc"
"llvm.hexagon.S2.lsr.i.p"
"llvm.hexagon.S2.lsr.i.r.acc"
"llvm.hexagon.S2.lsr.i.r.and"
"llvm.hexagon.S2.lsr.i.r.nac"
"llvm.hexagon.S2.lsr.i.r.or"
"llvm.hexagon.S2.lsr.i.r.xacc"
"llvm.hexagon.S2.lsr.i.r"
"llvm.hexagon.S2.lsr.i.vh"
"llvm.hexagon.S2.lsr.i.vw"
"llvm.hexagon.S2.lsr.r.p.acc"
"llvm.hexagon.S2.lsr.r.p.and"
"llvm.hexagon.S2.lsr.r.p.nac"
"llvm.hexagon.S2.lsr.r.p.or"
"llvm.hexagon.S2.lsr.r.p.xor"
"llvm.hexagon.S2.lsr.r.p"
"llvm.hexagon.S2.lsr.r.r.acc"
"llvm.hexagon.S2.lsr.r.r.and"
"llvm.hexagon.S2.lsr.r.r.nac"
"llvm.hexagon.S2.lsr.r.r.or"
"llvm.hexagon.S2.lsr.r.r"
"llvm.hexagon.S2.lsr.r.vh"
"llvm.hexagon.S2.lsr.r.vw"
"llvm.hexagon.S2.packhl"
"llvm.hexagon.S2.parityp"
"llvm.hexagon.S2.setbit.i"
"llvm.hexagon.S2.setbit.r"
"llvm.hexagon.S2.shuffeb"
"llvm.hexagon.S2.shuffeh"
"llvm.hexagon.S2.shuffob"
"llvm.hexagon.S2.shuffoh"
"llvm.hexagon.S2.storerb.pbr"
"llvm.hexagon.S2.storerb.pci"
"llvm.hexagon.S2.storerb.pcr"
"llvm.hexagon.S2.storerd.pbr"
"llvm.hexagon.S2.storerd.pci"
"llvm.hexagon.S2.storerd.pcr"
"llvm.hexagon.S2.storerf.pbr"
"llvm.hexagon.S2.storerf.pci"
"llvm.hexagon.S2.storerf.pcr"
"llvm.hexagon.S2.storerh.pbr"
"llvm.hexagon.S2.storerh.pci"
"llvm.hexagon.S2.storerh.pcr"
"llvm.hexagon.S2.storeri.pbr"
"llvm.hexagon.S2.storeri.pci"
"llvm.hexagon.S2.storeri.pcr"
"llvm.hexagon.S2.storew.locked"
"llvm.hexagon.S2.svsathb"
"llvm.hexagon.S2.svsathub"
"llvm.hexagon.S2.tableidxb.goodsyntax"
"llvm.hexagon.S2.tableidxd.goodsyntax"
"llvm.hexagon.S2.tableidxh.goodsyntax"
"llvm.hexagon.S2.tableidxw.goodsyntax"
"llvm.hexagon.S2.togglebit.i"
"llvm.hexagon.S2.togglebit.r"
"llvm.hexagon.S2.tstbit.i"
"llvm.hexagon.S2.tstbit.r"
"llvm.hexagon.S2.valignib"
"llvm.hexagon.S2.valignrb"
"llvm.hexagon.S2.vcnegh"
"llvm.hexagon.S2.vcrotate"
"llvm.hexagon.S2.vrcnegh"
"llvm.hexagon.S2.vrndpackwh"
"llvm.hexagon.S2.vrndpackwhs"
"llvm.hexagon.S2.vsathb.nopack"
"llvm.hexagon.S2.vsathb"
"llvm.hexagon.S2.vsathub.nopack"
"llvm.hexagon.S2.vsathub"
"llvm.hexagon.S2.vsatwh.nopack"
"llvm.hexagon.S2.vsatwh"
"llvm.hexagon.S2.vsatwuh.nopack"
"llvm.hexagon.S2.vsatwuh"
"llvm.hexagon.S2.vsplatrb"
"llvm.hexagon.S2.vsplatrh"
"llvm.hexagon.S2.vspliceib"
"llvm.hexagon.S2.vsplicerb"
"llvm.hexagon.S2.vsxtbh"
"llvm.hexagon.S2.vsxthw"
"llvm.hexagon.S2.vtrunehb"
"llvm.hexagon.S2.vtrunewh"
"llvm.hexagon.S2.vtrunohb"
"llvm.hexagon.S2.vtrunowh"
"llvm.hexagon.S2.vzxtbh"
"llvm.hexagon.S2.vzxthw"
"llvm.hexagon.S4.addaddi"
"llvm.hexagon.S4.addi.asl.ri"
"llvm.hexagon.S4.addi.lsr.ri"
"llvm.hexagon.S4.andi.asl.ri"
"llvm.hexagon.S4.andi.lsr.ri"
"llvm.hexagon.S4.clbaddi"
"llvm.hexagon.S4.clbpaddi"
"llvm.hexagon.S4.clbpnorm"
"llvm.hexagon.S4.extract.rp"
"llvm.hexagon.S4.extract"
"llvm.hexagon.S4.extractp.rp"
"llvm.hexagon.S4.extractp"
"llvm.hexagon.S4.lsli"
"llvm.hexagon.S4.ntstbit.i"
"llvm.hexagon.S4.ntstbit.r"
"llvm.hexagon.S4.or.andi"
"llvm.hexagon.S4.or.andix"
"llvm.hexagon.S4.or.ori"
"llvm.hexagon.S4.ori.asl.ri"
"llvm.hexagon.S4.ori.lsr.ri"
"llvm.hexagon.S4.parity"
"llvm.hexagon.S4.stored.locked"
"llvm.hexagon.S4.subaddi"
"llvm.hexagon.S4.subi.asl.ri"
"llvm.hexagon.S4.subi.lsr.ri"
"llvm.hexagon.S4.vrcrotate.acc"
"llvm.hexagon.S4.vrcrotate"
"llvm.hexagon.S4.vxaddsubh"
"llvm.hexagon.S4.vxaddsubhr"
"llvm.hexagon.S4.vxaddsubw"
"llvm.hexagon.S4.vxsubaddh"
"llvm.hexagon.S4.vxsubaddhr"
"llvm.hexagon.S4.vxsubaddw"
"llvm.hexagon.S5.asrhub.rnd.sat.goodsyntax"
"llvm.hexagon.S5.asrhub.sat"
"llvm.hexagon.S5.popcountp"
"llvm.hexagon.S5.vasrhrnd.goodsyntax"
"llvm.hexagon.S6.rol.i.p.acc"
"llvm.hexagon.S6.rol.i.p.and"
"llvm.icall.branch.funnel"
"llvm.ident"
"llvm.init_trampoline parameter #2 must resolve to a function."
"llvm.init.trampoline"
"llvm.instrprof.increment.step"
"llvm.instrprof.increment"
"llvm.instrprof.value.profile"
"llvm.invariant.end parameter #2 must be a constant integer"
"llvm.invariant.end"
"llvm.invariant.start"
"llvm.launder.invariant.group"
"llvm.lifetime.end"
"llvm.lifetime.start"
"llvm.linker.options"
"llvm.load.relative"
"llvm.localaddress"
"llvm.localescape only accepts static allocas"
"llvm.localescape used outside of entry block"
"llvm.localescape"
"llvm.localrecover first argument must be function defined in this module"
"llvm.localrecover"
"llvm.log"
"llvm.log10"
"llvm.log2"
"llvm.longjmp"
"llvm.loop.interleave.count"
"llvm.loop.vectorize."
"llvm.masked.compressstore"
"llvm.masked.expandload"
"llvm.masked.gather"
"llvm.masked.load"
"llvm.masked.scatter"
"llvm.masked.store"
"llvm.matrix.add"
"llvm.matrix.columnwise.load"
"llvm.matrix.columnwise.store"
"llvm.matrix.extract"
"llvm.matrix.insert"
"llvm.matrix.multiply"
"llvm.matrix.scalar.multiply"
"llvm.matrix.subtract"
"llvm.matrix.transpose"
"llvm.maxnum"
"llvm.memcpy.element.unordered.atomic"
"llvm.memcpy"
"llvm.memmove.element.unordered.atomic"
"llvm.memmove"
"llvm.memset.element.unordered.atomic"
"llvm.memset"
"llvm.metadata"
"llvm.minnum"
"llvm.mips.absq.s.ph"
"llvm.mips.absq.s.qb"
"llvm.mips.absq.s.w"
"llvm.mips.add.a.b"
"llvm.mips.add.a.d"
"llvm.mips.add.a.h"
"llvm.mips.add.a.w"
"llvm.mips.addq.ph"
"llvm.mips.addq.s.ph"
"llvm.mips.addq.s.w"
"llvm.mips.addqh.ph"
"llvm.mips.addqh.r.ph"
"llvm.mips.addqh.r.w"
"llvm.mips.addqh.w"
"llvm.mips.adds.a.b"
"llvm.mips.adds.a.d"
"llvm.mips.adds.a.h"
"llvm.mips.adds.a.w"
"llvm.mips.adds.s.b"
"llvm.mips.adds.s.d"
"llvm.mips.adds.s.h"
"llvm.mips.adds.s.w"
"llvm.mips.adds.u.b"
"llvm.mips.adds.u.d"
"llvm.mips.adds.u.h"
"llvm.mips.adds.u.w"
"llvm.mips.addsc"
"llvm.mips.addu.ph"
"llvm.mips.addu.qb"
"llvm.mips.addu.s.ph"
"llvm.mips.addu.s.qb"
"llvm.mips.adduh.qb"
"llvm.mips.adduh.r.qb"
"llvm.mips.addv.b"
"llvm.mips.addv.d"
"llvm.mips.addv.h"
"llvm.mips.addv.w"
"llvm.mips.addvi.b"
"llvm.mips.addvi.d"
"llvm.mips.addvi.h"
"llvm.mips.addvi.w"
"llvm.mips.addwc"
"llvm.mips.and.v"
"llvm.mips.andi.b"
"llvm.mips.append"
"llvm.mips.asub.s.b"
"llvm.mips.asub.s.d"
"llvm.mips.asub.s.h"
"llvm.mips.asub.s.w"
"llvm.mips.asub.u.b"
"llvm.mips.asub.u.d"
"llvm.mips.asub.u.h"
"llvm.mips.asub.u.w"
"llvm.mips.ave.s.b"
"llvm.mips.ave.s.d"
"llvm.mips.ave.s.h"
"llvm.mips.ave.s.w"
"llvm.mips.ave.u.b"
"llvm.mips.ave.u.d"
"llvm.mips.ave.u.h"
"llvm.mips.ave.u.w"
"llvm.mips.aver.s.b"
"llvm.mips.aver.s.d"
"llvm.mips.aver.s.h"
"llvm.mips.aver.s.w"
"llvm.mips.aver.u.b"
"llvm.mips.aver.u.d"
"llvm.mips.aver.u.h"
"llvm.mips.aver.u.w"
"llvm.mips.balign"
"llvm.mips.bclr.b"
"llvm.mips.bclr.d"
"llvm.mips.bclr.h"
"llvm.mips.bclr.w"
"llvm.mips.bclri.b"
"llvm.mips.bclri.d"
"llvm.mips.bclri.h"
"llvm.mips.bclri.w"
"llvm.mips.binsl.b"
"llvm.mips.binsl.d"
"llvm.mips.binsl.h"
"llvm.mips.binsl.w"
"llvm.mips.binsli.b"
"llvm.mips.binsli.d"
"llvm.mips.binsli.h"
"llvm.mips.binsli.w"
"llvm.mips.binsr.b"
"llvm.mips.binsr.d"
"llvm.mips.binsr.h"
"llvm.mips.binsr.w"
"llvm.mips.binsri.b"
"llvm.mips.binsri.d"
"llvm.mips.binsri.h"
"llvm.mips.binsri.w"
"llvm.mips.bitrev"
"llvm.mips.bmnz.v"
"llvm.mips.bmnzi.b"
"llvm.mips.bmz.v"
"llvm.mips.bmzi.b"
"llvm.mips.bneg.b"
"llvm.mips.bneg.d"
"llvm.mips.bneg.h"
"llvm.mips.bneg.w"
"llvm.mips.bnegi.b"
"llvm.mips.bnegi.d"
"llvm.mips.bnegi.h"
"llvm.mips.bnegi.w"
"llvm.mips.bnz.b"
"llvm.mips.bnz.d"
"llvm.mips.bnz.h"
"llvm.mips.bnz.v"
"llvm.mips.bnz.w"
"llvm.mips.bposge32"
"llvm.mips.bsel.v"
"llvm.mips.bseli.b"
"llvm.mips.bset.b"
"llvm.mips.bset.d"
"llvm.mips.bset.h"
"llvm.mips.bset.w"
"llvm.mips.bseti.b"
"llvm.mips.bseti.d"
"llvm.mips.bseti.h"
"llvm.mips.bseti.w"
"llvm.mips.bz.b"
"llvm.mips.bz.d"
"llvm.mips.bz.h"
"llvm.mips.bz.v"
"llvm.mips.bz.w"
"llvm.mips.ceq.b"
"llvm.mips.ceq.d"
"llvm.mips.ceq.h"
"llvm.mips.ceq.w"
"llvm.mips.ceqi.b"
"llvm.mips.ceqi.d"
"llvm.mips.ceqi.h"
"llvm.mips.ceqi.w"
"llvm.mips.cfcmsa"
"llvm.mips.cle.s.b"
"llvm.mips.cle.s.d"
"llvm.mips.cle.s.h"
"llvm.mips.cle.s.w"
"llvm.mips.cle.u.b"
"llvm.mips.cle.u.d"
"llvm.mips.cle.u.h"
"llvm.mips.cle.u.w"
"llvm.mips.clei.s.b"
"llvm.mips.clei.s.d"
"llvm.mips.clei.s.h"
"llvm.mips.clei.s.w"
"llvm.mips.clei.u.b"
"llvm.mips.clei.u.d"
"llvm.mips.clei.u.h"
"llvm.mips.clei.u.w"
"llvm.mips.clt.s.b"
"llvm.mips.clt.s.d"
"llvm.mips.clt.s.h"
"llvm.mips.clt.s.w"
"llvm.mips.clt.u.b"
"llvm.mips.clt.u.d"
"llvm.mips.clt.u.h"
"llvm.mips.clt.u.w"
"llvm.mips.clti.s.b"
"llvm.mips.clti.s.d"
"llvm.mips.clti.s.h"
"llvm.mips.clti.s.w"
"llvm.mips.clti.u.b"
"llvm.mips.clti.u.d"
"llvm.mips.clti.u.h"
"llvm.mips.clti.u.w"
"llvm.mips.cmp.eq.ph"
"llvm.mips.cmp.le.ph"
"llvm.mips.cmp.lt.ph"
"llvm.mips.cmpgdu.eq.qb"
"llvm.mips.cmpgdu.le.qb"
"llvm.mips.cmpgdu.lt.qb"
"llvm.mips.cmpgu.eq.qb"
"llvm.mips.cmpgu.le.qb"
"llvm.mips.cmpgu.lt.qb"
"llvm.mips.cmpu.eq.qb"
"llvm.mips.cmpu.le.qb"
"llvm.mips.cmpu.lt.qb"
"llvm.mips.copy.s.b"
"llvm.mips.copy.s.d"
"llvm.mips.copy.s.h"
"llvm.mips.copy.s.w"
"llvm.mips.copy.u.b"
"llvm.mips.copy.u.d"
"llvm.mips.copy.u.h"
"llvm.mips.copy.u.w"
"llvm.mips.ctcmsa"
"llvm.mips.div.s.b"
"llvm.mips.div.s.d"
"llvm.mips.div.s.h"
"llvm.mips.div.s.w"
"llvm.mips.div.u.b"
"llvm.mips.div.u.d"
"llvm.mips.div.u.h"
"llvm.mips.div.u.w"
"llvm.mips.dlsa"
"llvm.mips.dotp.s.d"
"llvm.mips.dotp.s.h"
"llvm.mips.dotp.s.w"
"llvm.mips.dotp.u.d"
"llvm.mips.dotp.u.h"
"llvm.mips.dotp.u.w"
"llvm.mips.dpa.w.ph"
"llvm.mips.dpadd.s.d"
"llvm.mips.dpadd.s.h"
"llvm.mips.dpadd.s.w"
"llvm.mips.dpadd.u.d"
"llvm.mips.dpadd.u.h"
"llvm.mips.dpadd.u.w"
"llvm.mips.dpaq.s.w.ph"
"llvm.mips.dpaq.sa.l.w"
"llvm.mips.dpaqx.s.w.ph"
"llvm.mips.dpaqx.sa.w.ph"
"llvm.mips.dpau.h.qbl"
"llvm.mips.dpau.h.qbr"
"llvm.mips.dpax.w.ph"
"llvm.mips.dps.w.ph"
"llvm.mips.dpsq.s.w.ph"
"llvm.mips.dpsq.sa.l.w"
"llvm.mips.dpsqx.s.w.ph"
"llvm.mips.dpsqx.sa.w.ph"
"llvm.mips.dpsu.h.qbl"
"llvm.mips.dpsu.h.qbr"
"llvm.mips.dpsub.s.d"
"llvm.mips.dpsub.s.h"
"llvm.mips.dpsub.s.w"
"llvm.mips.dpsub.u.d"
"llvm.mips.dpsub.u.h"
"llvm.mips.dpsub.u.w"
"llvm.mips.dpsx.w.ph"
"llvm.mips.extp"
"llvm.mips.extpdp"
"llvm.mips.extr.r.w"
"llvm.mips.extr.rs.w"
"llvm.mips.extr.s.h"
"llvm.mips.extr.w"
"llvm.mips.fadd.d"
"llvm.mips.fadd.w"
"llvm.mips.fcaf.d"
"llvm.mips.fcaf.w"
"llvm.mips.fceq.d"
"llvm.mips.fceq.w"
"llvm.mips.fclass.d"
"llvm.mips.fclass.w"
"llvm.mips.fcle.d"
"llvm.mips.fcle.w"
"llvm.mips.fclt.d"
"llvm.mips.fclt.w"
"llvm.mips.fcne.d"
"llvm.mips.fcne.w"
"llvm.mips.fcor.d"
"llvm.mips.fcor.w"
"llvm.mips.fcueq.d"
"llvm.mips.fcueq.w"
"llvm.mips.fcule.d"
"llvm.mips.fcule.w"
"llvm.mips.fcult.d"
"llvm.mips.fcult.w"
"llvm.mips.fcun.d"
"llvm.mips.fcun.w"
"llvm.mips.fcune.d"
"llvm.mips.fcune.w"
"llvm.mips.fdiv.d"
"llvm.mips.fdiv.w"
"llvm.mips.fexdo.h"
"llvm.mips.fexdo.w"
"llvm.mips.fexp2.d"
"llvm.mips.fexp2.w"
"llvm.mips.fexupl.d"
"llvm.mips.fexupl.w"
"llvm.mips.fexupr.d"
"llvm.mips.fexupr.w"
"llvm.mips.ffint.s.d"
"llvm.mips.ffint.s.w"
"llvm.mips.ffint.u.d"
"llvm.mips.ffint.u.w"
"llvm.mips.ffql.d"
"llvm.mips.ffql.w"
"llvm.mips.ffqr.d"
"llvm.mips.ffqr.w"
"llvm.mips.fill.b"
"llvm.mips.fill.d"
"llvm.mips.fill.h"
"llvm.mips.fill.w"
"llvm.mips.flog2.d"
"llvm.mips.flog2.w"
"llvm.mips.fmadd.d"
"llvm.mips.fmadd.w"
"llvm.mips.fmax.a.d"
"llvm.mips.fmax.a.w"
"llvm.mips.fmax.d"
"llvm.mips.fmax.w"
"llvm.mips.fmin.a.d"
"llvm.mips.fmin.a.w"
"llvm.mips.fmin.d"
"llvm.mips.fmin.w"
"llvm.mips.fmsub.d"
"llvm.mips.fmsub.w"
"llvm.mips.fmul.d"
"llvm.mips.fmul.w"
"llvm.mips.frcp.d"
"llvm.mips.frcp.w"
"llvm.mips.frint.d"
"llvm.mips.frint.w"
"llvm.mips.frsqrt.d"
"llvm.mips.frsqrt.w"
"llvm.mips.fsaf.d"
"llvm.mips.fsaf.w"
"llvm.mips.fseq.d"
"llvm.mips.fseq.w"
"llvm.mips.fsle.d"
"llvm.mips.fsle.w"
"llvm.mips.fslt.d"
"llvm.mips.fslt.w"
"llvm.mips.fsne.d"
"llvm.mips.fsne.w"
"llvm.mips.fsor.d"
"llvm.mips.fsor.w"
"llvm.mips.fsqrt.d"
"llvm.mips.fsqrt.w"
"llvm.mips.fsub.d"
"llvm.mips.fsub.w"
"llvm.mips.fsueq.d"
"llvm.mips.fsueq.w"
"llvm.mips.fsule.d"
"llvm.mips.fsule.w"
"llvm.mips.fsult.d"
"llvm.mips.fsult.w"
"llvm.mips.fsun.d"
"llvm.mips.fsun.w"
"llvm.mips.fsune.d"
"llvm.mips.fsune.w"
"llvm.mips.ftint.s.d"
"llvm.mips.ftint.s.w"
"llvm.mips.ftint.u.d"
"llvm.mips.ftint.u.w"
"llvm.mips.ftq.h"
"llvm.mips.ftq.w"
"llvm.mips.ftrunc.s.d"
"llvm.mips.ftrunc.s.w"
"llvm.mips.ftrunc.u.d"
"llvm.mips.ftrunc.u.w"
"llvm.mips.hadd.s.d"
"llvm.mips.hadd.s.h"
"llvm.mips.hadd.s.w"
"llvm.mips.hadd.u.d"
"llvm.mips.hadd.u.h"
"llvm.mips.hadd.u.w"
"llvm.mips.hsub.s.d"
"llvm.mips.hsub.s.h"
"llvm.mips.hsub.s.w"
"llvm.mips.hsub.u.d"
"llvm.mips.hsub.u.h"
"llvm.mips.hsub.u.w"
"llvm.mips.ilvev.b"
"llvm.mips.ilvev.d"
"llvm.mips.ilvev.h"
"llvm.mips.ilvev.w"
"llvm.mips.ilvl.b"
"llvm.mips.ilvl.d"
"llvm.mips.ilvl.h"
"llvm.mips.ilvl.w"
"llvm.mips.ilvod.b"
"llvm.mips.ilvod.d"
"llvm.mips.ilvod.h"
"llvm.mips.ilvod.w"
"llvm.mips.ilvr.b"
"llvm.mips.ilvr.d"
"llvm.mips.ilvr.h"
"llvm.mips.ilvr.w"
"llvm.mips.insert.b"
"llvm.mips.insert.d"
"llvm.mips.insert.h"
"llvm.mips.insert.w"
"llvm.mips.insv"
"llvm.mips.insve.b"
"llvm.mips.insve.d"
"llvm.mips.insve.h"
"llvm.mips.insve.w"
"llvm.mips.lbux"
"llvm.mips.ld.b"
"llvm.mips.ld.d"
"llvm.mips.ld.h"
"llvm.mips.ld.w"
"llvm.mips.ldi.b"
"llvm.mips.ldi.d"
"llvm.mips.ldi.h"
"llvm.mips.ldi.w"
"llvm.mips.lhx"
"llvm.mips.lsa"
"llvm.mips.lwx"
"llvm.mips.madd.q.h"
"llvm.mips.madd.q.w"
"llvm.mips.madd"
"llvm.mips.maddr.q.h"
"llvm.mips.maddr.q.w"
"llvm.mips.maddu"
"llvm.mips.maddv.b"
"llvm.mips.maddv.d"
"llvm.mips.maddv.h"
"llvm.mips.maddv.w"
"llvm.mips.maq.s.w.phl"
"llvm.mips.maq.s.w.phr"
"llvm.mips.maq.sa.w.phl"
"llvm.mips.maq.sa.w.phr"
"llvm.mips.max.a.b"
"llvm.mips.max.a.d"
"llvm.mips.max.a.h"
"llvm.mips.max.a.w"
"llvm.mips.max.s.b"
"llvm.mips.max.s.d"
"llvm.mips.max.s.h"
"llvm.mips.max.s.w"
"llvm.mips.max.u.b"
"llvm.mips.max.u.d"
"llvm.mips.max.u.h"
"llvm.mips.max.u.w"
"llvm.mips.maxi.s.b"
"llvm.mips.maxi.s.d"
"llvm.mips.maxi.s.h"
"llvm.mips.maxi.s.w"
"llvm.mips.maxi.u.b"
"llvm.mips.maxi.u.d"
"llvm.mips.maxi.u.h"
"llvm.mips.maxi.u.w"
"llvm.mips.min.a.b"
"llvm.mips.min.a.d"
"llvm.mips.min.a.h"
"llvm.mips.min.a.w"
"llvm.mips.min.s.b"
"llvm.mips.min.s.d"
"llvm.mips.min.s.h"
"llvm.mips.min.s.w"
"llvm.mips.min.u.b"
"llvm.mips.min.u.d"
"llvm.mips.min.u.h"
"llvm.mips.min.u.w"
"llvm.mips.mini.s.b"
"llvm.mips.mini.s.d"
"llvm.mips.mini.s.h"
"llvm.mips.mini.s.w"
"llvm.mips.mini.u.b"
"llvm.mips.mini.u.d"
"llvm.mips.mini.u.h"
"llvm.mips.mini.u.w"
"llvm.mips.mod.s.b"
"llvm.mips.mod.s.d"
"llvm.mips.mod.s.h"
"llvm.mips.mod.s.w"
"llvm.mips.mod.u.b"
"llvm.mips.mod.u.d"
"llvm.mips.mod.u.h"
"llvm.mips.mod.u.w"
"llvm.mips.modsub"
"llvm.mips.move.v"
"llvm.mips.msub.q.h"
"llvm.mips.msub.q.w"
"llvm.mips.msub"
"llvm.mips.msubr.q.h"
"llvm.mips.msubr.q.w"
"llvm.mips.msubu"
"llvm.mips.msubv.b"
"llvm.mips.msubv.d"
"llvm.mips.msubv.h"
"llvm.mips.msubv.w"
"llvm.mips.mthlip"
"llvm.mips.mul.ph"
"llvm.mips.mul.q.h"
"llvm.mips.mul.q.w"
"llvm.mips.mul.s.ph"
"llvm.mips.muleq.s.w.phl"
"llvm.mips.muleq.s.w.phr"
"llvm.mips.muleu.s.ph.qbl"
"llvm.mips.muleu.s.ph.qbr"
"llvm.mips.mulq.rs.ph"
"llvm.mips.mulq.rs.w"
"llvm.mips.mulq.s.ph"
"llvm.mips.mulq.s.w"
"llvm.mips.mulr.q.h"
"llvm.mips.mulr.q.w"
"llvm.mips.mulsa.w.ph"
"llvm.mips.mulsaq.s.w.ph"
"llvm.mips.mult"
"llvm.mips.multu"
"llvm.mips.mulv.b"
"llvm.mips.mulv.d"
"llvm.mips.mulv.h"
"llvm.mips.mulv.w"
"llvm.mips.nloc.b"
"llvm.mips.nloc.d"
"llvm.mips.nloc.h"
"llvm.mips.nloc.w"
"llvm.mips.nlzc.b"
"llvm.mips.nlzc.d"
"llvm.mips.nlzc.h"
"llvm.mips.nlzc.w"
"llvm.mips.nor.v"
"llvm.mips.nori.b"
"llvm.mips.or.v"
"llvm.mips.ori.b"
"llvm.mips.packrl.ph"
"llvm.mips.pckev.b"
"llvm.mips.pckev.d"
"llvm.mips.pckev.h"
"llvm.mips.pckev.w"
"llvm.mips.pckod.b"
"llvm.mips.pckod.d"
"llvm.mips.pckod.h"
"llvm.mips.pckod.w"
"llvm.mips.pcnt.b"
"llvm.mips.pcnt.d"
"llvm.mips.pcnt.h"
"llvm.mips.pcnt.w"
"llvm.mips.pick.ph"
"llvm.mips.pick.qb"
"llvm.mips.preceq.w.phl"
"llvm.mips.preceq.w.phr"
"llvm.mips.precequ.ph.qbl"
"llvm.mips.precequ.ph.qbla"
"llvm.mips.precequ.ph.qbr"
"llvm.mips.precequ.ph.qbra"
"llvm.mips.preceu.ph.qbl"
"llvm.mips.preceu.ph.qbla"
"llvm.mips.preceu.ph.qbr"
"llvm.mips.preceu.ph.qbra"
"llvm.mips.precr.qb.ph"
"llvm.mips.precr.sra.ph.w"
"llvm.mips.precr.sra.r.ph.w"
"llvm.mips.precrq.ph.w"
"llvm.mips.precrq.qb.ph"
"llvm.mips.precrq.rs.ph.w"
"llvm.mips.precrqu.s.qb.ph"
"llvm.mips.prepend"
"llvm.mips.raddu.w.qb"
"llvm.mips.rddsp"
"llvm.mips.repl.ph"
"llvm.mips.repl.qb"
"llvm.mips.sat.s.b"
"llvm.mips.sat.s.d"
"llvm.mips.sat.s.h"
"llvm.mips.sat.s.w"
"llvm.mips.sat.u.b"
"llvm.mips.sat.u.d"
"llvm.mips.sat.u.h"
"llvm.mips.sat.u.w"
"llvm.mips.shf.b"
"llvm.mips.shf.h"
"llvm.mips.shf.w"
"llvm.mips.shilo"
"llvm.mips.shll.ph"
"llvm.mips.shll.qb"
"llvm.mips.shll.s.ph"
"llvm.mips.shll.s.w"
"llvm.mips.shra.ph"
"llvm.mips.shra.qb"
"llvm.mips.shra.r.ph"
"llvm.mips.shra.r.qb"
"llvm.mips.shra.r.w"
"llvm.mips.shrl.ph"
"llvm.mips.shrl.qb"
"llvm.mips.sld.b"
"llvm.mips.sld.d"
"llvm.mips.sld.h"
"llvm.mips.sld.w"
"llvm.mips.sldi.b"
"llvm.mips.sldi.d"
"llvm.mips.sldi.h"
"llvm.mips.sldi.w"
"llvm.mips.sll.b"
"llvm.mips.sll.d"
"llvm.mips.sll.h"
"llvm.mips.sll.w"
"llvm.mips.slli.b"
"llvm.mips.slli.d"
"llvm.mips.slli.h"
"llvm.mips.slli.w"
"llvm.mips.splat.b"
"llvm.mips.splat.d"
"llvm.mips.splat.h"
"llvm.mips.splat.w"
"llvm.mips.splati.b"
"llvm.mips.splati.d"
"llvm.mips.splati.h"
"llvm.mips.splati.w"
"llvm.mips.sra.b"
"llvm.mips.sra.d"
"llvm.mips.sra.h"
"llvm.mips.sra.w"
"llvm.mips.srai.b"
"llvm.mips.srai.d"
"llvm.mips.srai.h"
"llvm.mips.srai.w"
"llvm.mips.srar.b"
"llvm.mips.srar.d"
"llvm.mips.srar.h"
"llvm.mips.srar.w"
"llvm.mips.srari.b"
"llvm.mips.srari.d"
"llvm.mips.srari.h"
"llvm.mips.srari.w"
"llvm.mips.srl.b"
"llvm.mips.srl.d"
"llvm.mips.srl.h"
"llvm.mips.srl.w"
"llvm.mips.srli.b"
"llvm.mips.srli.d"
"llvm.mips.srli.h"
"llvm.mips.srli.w"
"llvm.mips.srlr.b"
"llvm.mips.srlr.d"
"llvm.mips.srlr.h"
"llvm.mips.srlr.w"
"llvm.mips.srlri.b"
"llvm.mips.srlri.d"
"llvm.mips.srlri.h"
"llvm.mips.srlri.w"
"llvm.mips.st.b"
"llvm.mips.st.d"
"llvm.mips.st.h"
"llvm.mips.st.w"
"llvm.mips.subq.ph"
"llvm.mips.subq.s.ph"
"llvm.mips.subq.s.w"
"llvm.mips.subqh.ph"
"llvm.mips.subqh.r.ph"
"llvm.mips.subqh.r.w"
"llvm.mips.subqh.w"
"llvm.mips.subs.s.b"
"llvm.mips.subs.s.d"
"llvm.mips.subs.s.h"
"llvm.mips.subs.s.w"
"llvm.mips.subs.u.b"
"llvm.mips.subs.u.d"
"llvm.mips.subs.u.h"
"llvm.mips.subs.u.w"
"llvm.mips.subsus.u.b"
"llvm.mips.subsus.u.d"
"llvm.mips.subsus.u.h"
"llvm.mips.subsus.u.w"
"llvm.mips.subsuu.s.b"
"llvm.mips.subsuu.s.d"
"llvm.mips.subsuu.s.h"
"llvm.mips.subsuu.s.w"
"llvm.mips.subu.ph"
"llvm.mips.subu.qb"
"llvm.mips.subu.s.ph"
"llvm.mips.subu.s.qb"
"llvm.mips.subuh.qb"
"llvm.mips.subuh.r.qb"
"llvm.mips.subv.b"
"llvm.mips.subv.d"
"llvm.mips.subv.h"
"llvm.mips.subv.w"
"llvm.mips.subvi.b"
"llvm.mips.subvi.d"
"llvm.mips.subvi.h"
"llvm.mips.subvi.w"
"llvm.mips.vshf.b"
"llvm.mips.vshf.d"
"llvm.mips.vshf.h"
"llvm.mips.vshf.w"
"llvm.mips.wrdsp"
"llvm.mips.xor.v"
"llvm.mips.xori.b"
"llvm.module.flags"
"llvm.nearbyint"
"llvm.nvvm.add.rm.d"
"llvm.nvvm.add.rm.f"
"llvm.nvvm.add.rm.ftz.f"
"llvm.nvvm.add.rn.d"
"llvm.nvvm.add.rn.f"
"llvm.nvvm.add.rn.ftz.f"
"llvm.nvvm.add.rp.d"
"llvm.nvvm.add.rp.f"
"llvm.nvvm.add.rp.ftz.f"
"llvm.nvvm.add.rz.d"
"llvm.nvvm.add.rz.f"
"llvm.nvvm.add.rz.ftz.f"
"llvm.nvvm.atomic.add.gen.f.cta"
"llvm.nvvm.atomic.add.gen.f.sys"
"llvm.nvvm.atomic.add.gen.i.cta"
"llvm.nvvm.atomic.add.gen.i.sys"
"llvm.nvvm.atomic.and.gen.i.cta"
"llvm.nvvm.atomic.and.gen.i.sys"
"llvm.nvvm.atomic.cas.gen.i.cta"
"llvm.nvvm.atomic.cas.gen.i.sys"
"llvm.nvvm.atomic.dec.gen.i.cta"
"llvm.nvvm.atomic.dec.gen.i.sys"
"llvm.nvvm.atomic.exch.gen.i.cta"
"llvm.nvvm.atomic.exch.gen.i.sys"
"llvm.nvvm.atomic.inc.gen.i.cta"
"llvm.nvvm.atomic.inc.gen.i.sys"
"llvm.nvvm.atomic.load.add.f32"
"llvm.nvvm.atomic.load.add.f64"
"llvm.nvvm.atomic.load.dec.32"
"llvm.nvvm.atomic.load.inc.32"
"llvm.nvvm.atomic.max.gen.i.cta"
"llvm.nvvm.atomic.max.gen.i.sys"
"llvm.nvvm.atomic.min.gen.i.cta"
"llvm.nvvm.atomic.min.gen.i.sys"
"llvm.nvvm.atomic.or.gen.i.cta"
"llvm.nvvm.atomic.or.gen.i.sys"
"llvm.nvvm.atomic.xor.gen.i.cta"
"llvm.nvvm.atomic.xor.gen.i.sys"
"llvm.nvvm.bar.sync"
"llvm.nvvm.bar.warp.sync"
"llvm.nvvm.barrier.n"
"llvm.nvvm.barrier.sync.cnt"
"llvm.nvvm.barrier.sync"
"llvm.nvvm.barrier"
"llvm.nvvm.barrier0.and"
"llvm.nvvm.barrier0.or"
"llvm.nvvm.barrier0.popc"
"llvm.nvvm.barrier0"
"llvm.nvvm.bitcast.d2ll"
"llvm.nvvm.bitcast.f2i"
"llvm.nvvm.bitcast.i2f"
"llvm.nvvm.bitcast.ll2d"
"llvm.nvvm.ceil.d"
"llvm.nvvm.ceil.f"
"llvm.nvvm.ceil.ftz.f"
"llvm.nvvm.compiler.error"
"llvm.nvvm.compiler.warn"
"llvm.nvvm.cos.approx.f"
"llvm.nvvm.cos.approx.ftz.f"
"llvm.nvvm.d2f.rm.ftz"
"llvm.nvvm.d2f.rm"
"llvm.nvvm.d2f.rn.ftz"
"llvm.nvvm.d2f.rn"
"llvm.nvvm.d2f.rp.ftz"
"llvm.nvvm.d2f.rp"
"llvm.nvvm.d2f.rz.ftz"
"llvm.nvvm.d2f.rz"
"llvm.nvvm.d2i.hi"
"llvm.nvvm.d2i.lo"
"llvm.nvvm.d2i.rm"
"llvm.nvvm.d2i.rn"
"llvm.nvvm.d2i.rp"
"llvm.nvvm.d2i.rz"
"llvm.nvvm.d2ll.rm"
"llvm.nvvm.d2ll.rn"
"llvm.nvvm.d2ll.rp"
"llvm.nvvm.d2ll.rz"
"llvm.nvvm.d2ui.rm"
"llvm.nvvm.d2ui.rn"
"llvm.nvvm.d2ui.rp"
"llvm.nvvm.d2ui.rz"
"llvm.nvvm.d2ull.rm"
"llvm.nvvm.d2ull.rn"
"llvm.nvvm.d2ull.rp"
"llvm.nvvm.d2ull.rz"
"llvm.nvvm.div.approx.f"
"llvm.nvvm.div.approx.ftz.f"
"llvm.nvvm.div.rm.d"
"llvm.nvvm.div.rm.f"
"llvm.nvvm.div.rm.ftz.f"
"llvm.nvvm.div.rn.d"
"llvm.nvvm.div.rn.f"
"llvm.nvvm.div.rn.ftz.f"
"llvm.nvvm.div.rp.d"
"llvm.nvvm.div.rp.f"
"llvm.nvvm.div.rp.ftz.f"
"llvm.nvvm.div.rz.d"
"llvm.nvvm.div.rz.f"
"llvm.nvvm.div.rz.ftz.f"
"llvm.nvvm.ex2.approx.d"
"llvm.nvvm.ex2.approx.f"
"llvm.nvvm.ex2.approx.ftz.f"
"llvm.nvvm.f2h.rn.ftz"
"llvm.nvvm.f2h.rn"
"llvm.nvvm.f2i.rm.ftz"
"llvm.nvvm.f2i.rm"
"llvm.nvvm.f2i.rn.ftz"
"llvm.nvvm.f2i.rn"
"llvm.nvvm.f2i.rp.ftz"
"llvm.nvvm.f2i.rp"
"llvm.nvvm.f2i.rz.ftz"
"llvm.nvvm.f2i.rz"
"llvm.nvvm.f2ll.rm.ftz"
"llvm.nvvm.f2ll.rm"
"llvm.nvvm.f2ll.rn.ftz"
"llvm.nvvm.f2ll.rn"
"llvm.nvvm.f2ll.rp.ftz"
"llvm.nvvm.f2ll.rp"
"llvm.nvvm.f2ll.rz.ftz"
"llvm.nvvm.f2ll.rz"
"llvm.nvvm.f2ui.rm.ftz"
"llvm.nvvm.f2ui.rm"
"llvm.nvvm.f2ui.rn.ftz"
"llvm.nvvm.f2ui.rn"
"llvm.nvvm.f2ui.rp.ftz"
"llvm.nvvm.f2ui.rp"
"llvm.nvvm.f2ui.rz.ftz"
"llvm.nvvm.f2ui.rz"
"llvm.nvvm.f2ull.rm.ftz"
"llvm.nvvm.f2ull.rm"
"llvm.nvvm.f2ull.rn.ftz"
"llvm.nvvm.f2ull.rn"
"llvm.nvvm.f2ull.rp.ftz"
"llvm.nvvm.f2ull.rp"
"llvm.nvvm.f2ull.rz.ftz"
"llvm.nvvm.f2ull.rz"
"llvm.nvvm.fabs.d"
"llvm.nvvm.fabs.f"
"llvm.nvvm.fabs.ftz.f"
"llvm.nvvm.floor.d"
"llvm.nvvm.floor.f"
"llvm.nvvm.floor.ftz.f"
"llvm.nvvm.fma.rm.d"
"llvm.nvvm.fma.rm.f"
"llvm.nvvm.fma.rm.ftz.f"
"llvm.nvvm.fma.rn.d"
"llvm.nvvm.fma.rn.f"
"llvm.nvvm.fma.rn.ftz.f"
"llvm.nvvm.fma.rp.d"
"llvm.nvvm.fma.rp.f"
"llvm.nvvm.fma.rp.ftz.f"
"llvm.nvvm.fma.rz.d"
"llvm.nvvm.fma.rz.f"
"llvm.nvvm.fma.rz.ftz.f"
"llvm.nvvm.fmax.d"
"llvm.nvvm.fmax.f"
"llvm.nvvm.fmax.ftz.f"
"llvm.nvvm.fmin.d"
"llvm.nvvm.fmin.f"
"llvm.nvvm.fmin.ftz.f"
"llvm.nvvm.fns"
"llvm.nvvm.i2d.rm"
"llvm.nvvm.i2d.rn"
"llvm.nvvm.i2d.rp"
"llvm.nvvm.i2d.rz"
"llvm.nvvm.i2f.rm"
"llvm.nvvm.i2f.rn"
"llvm.nvvm.i2f.rp"
"llvm.nvvm.i2f.rz"
"llvm.nvvm.isspacep.const"
"llvm.nvvm.isspacep.global"
"llvm.nvvm.isspacep.local"
"llvm.nvvm.isspacep.shared"
"llvm.nvvm.istypep.sampler"
"llvm.nvvm.istypep.surface"
"llvm.nvvm.istypep.texture"
"llvm.nvvm.ldg.global.f"
"llvm.nvvm.ldg.global.i"
"llvm.nvvm.ldg.global.p"
"llvm.nvvm.ldu.global.f"
"llvm.nvvm.ldu.global.i"
"llvm.nvvm.ldu.global.p"
"llvm.nvvm.lg2.approx.d"
"llvm.nvvm.lg2.approx.f"
"llvm.nvvm.lg2.approx.ftz.f"
"llvm.nvvm.ll2d.rm"
"llvm.nvvm.ll2d.rn"
"llvm.nvvm.ll2d.rp"
"llvm.nvvm.ll2d.rz"
"llvm.nvvm.ll2f.rm"
"llvm.nvvm.ll2f.rn"
"llvm.nvvm.ll2f.rp"
"llvm.nvvm.ll2f.rz"
"llvm.nvvm.lohi.i2d"
"llvm.nvvm.match.all.sync.i32p"
"llvm.nvvm.match.all.sync.i64p"
"llvm.nvvm.match.any.sync.i32"
"llvm.nvvm.match.any.sync.i64"
"llvm.nvvm.membar.cta"
"llvm.nvvm.membar.gl"
"llvm.nvvm.membar.sys"
"llvm.nvvm.move.double"
"llvm.nvvm.move.float"
"llvm.nvvm.move.i16"
"llvm.nvvm.move.i32"
"llvm.nvvm.move.i64"
"llvm.nvvm.move.ptr"
"llvm.nvvm.mul.rm.d"
"llvm.nvvm.mul.rm.f"
"llvm.nvvm.mul.rm.ftz.f"
"llvm.nvvm.mul.rn.d"
"llvm.nvvm.mul.rn.f"
"llvm.nvvm.mul.rn.ftz.f"
"llvm.nvvm.mul.rp.d"
"llvm.nvvm.mul.rp.f"
"llvm.nvvm.mul.rp.ftz.f"
"llvm.nvvm.mul.rz.d"
"llvm.nvvm.mul.rz.f"
"llvm.nvvm.mul.rz.ftz.f"
"llvm.nvvm.mul24.i"
"llvm.nvvm.mul24.ui"
"llvm.nvvm.mulhi.i"
"llvm.nvvm.mulhi.ll"
"llvm.nvvm.mulhi.ui"
"llvm.nvvm.mulhi.ull"
"llvm.nvvm.prmt"
"llvm.nvvm.ptr.constant.to.gen"
"llvm.nvvm.ptr.gen.to.constant"
"llvm.nvvm.ptr.gen.to.global"
"llvm.nvvm.ptr.gen.to.local"
"llvm.nvvm.ptr.gen.to.param"
"llvm.nvvm.ptr.gen.to.shared"
"llvm.nvvm.ptr.global.to.gen"
"llvm.nvvm.ptr.local.to.gen"
"llvm.nvvm.ptr.shared.to.gen"
"llvm.nvvm.rcp.approx.ftz.d"
"llvm.nvvm.rcp.rm.d"
"llvm.nvvm.rcp.rm.f"
"llvm.nvvm.rcp.rm.ftz.f"
"llvm.nvvm.rcp.rn.d"
"llvm.nvvm.rcp.rn.f"
"llvm.nvvm.rcp.rn.ftz.f"
"llvm.nvvm.rcp.rp.d"
"llvm.nvvm.rcp.rp.f"
"llvm.nvvm.rcp.rp.ftz.f"
"llvm.nvvm.rcp.rz.d"
"llvm.nvvm.rcp.rz.f"
"llvm.nvvm.rcp.rz.ftz.f"
"llvm.nvvm.read.ptx.sreg.clock"
"llvm.nvvm.read.ptx.sreg.clock64"
"llvm.nvvm.read.ptx.sreg.ctaid.w"
"llvm.nvvm.read.ptx.sreg.ctaid.x"
"llvm.nvvm.read.ptx.sreg.ctaid.y"
"llvm.nvvm.read.ptx.sreg.ctaid.z"
"llvm.nvvm.read.ptx.sreg.envreg0"
"llvm.nvvm.read.ptx.sreg.envreg1"
"llvm.nvvm.read.ptx.sreg.envreg10"
"llvm.nvvm.read.ptx.sreg.envreg11"
"llvm.nvvm.read.ptx.sreg.envreg12"
"llvm.nvvm.read.ptx.sreg.envreg13"
"llvm.nvvm.read.ptx.sreg.envreg14"
"llvm.nvvm.read.ptx.sreg.envreg15"
"llvm.nvvm.read.ptx.sreg.envreg16"
"llvm.nvvm.read.ptx.sreg.envreg17"
"llvm.nvvm.read.ptx.sreg.envreg18"
"llvm.nvvm.read.ptx.sreg.envreg19"
"llvm.nvvm.read.ptx.sreg.envreg2"
"llvm.nvvm.read.ptx.sreg.envreg20"
"llvm.nvvm.read.ptx.sreg.envreg21"
"llvm.nvvm.read.ptx.sreg.envreg22"
"llvm.nvvm.read.ptx.sreg.envreg23"
"llvm.nvvm.read.ptx.sreg.envreg24"
"llvm.nvvm.read.ptx.sreg.envreg25"
"llvm.nvvm.read.ptx.sreg.envreg26"
"llvm.nvvm.read.ptx.sreg.envreg27"
"llvm.nvvm.read.ptx.sreg.envreg28"
"llvm.nvvm.read.ptx.sreg.envreg29"
"llvm.nvvm.read.ptx.sreg.envreg3"
"llvm.nvvm.read.ptx.sreg.envreg30"
"llvm.nvvm.read.ptx.sreg.envreg31"
"llvm.nvvm.read.ptx.sreg.envreg4"
"llvm.nvvm.read.ptx.sreg.envreg5"
"llvm.nvvm.read.ptx.sreg.envreg6"
"llvm.nvvm.read.ptx.sreg.envreg7"
"llvm.nvvm.read.ptx.sreg.envreg8"
"llvm.nvvm.read.ptx.sreg.envreg9"
"llvm.nvvm.read.ptx.sreg.gridid"
"llvm.nvvm.read.ptx.sreg.laneid"
"llvm.nvvm.read.ptx.sreg.lanemask.eq"
"llvm.nvvm.read.ptx.sreg.lanemask.ge"
"llvm.nvvm.read.ptx.sreg.lanemask.gt"
"llvm.nvvm.read.ptx.sreg.lanemask.le"
"llvm.nvvm.read.ptx.sreg.lanemask.lt"
"llvm.nvvm.read.ptx.sreg.nctaid.w"
"llvm.nvvm.read.ptx.sreg.nctaid.x"
"llvm.nvvm.read.ptx.sreg.nctaid.y"
"llvm.nvvm.read.ptx.sreg.nctaid.z"
"llvm.nvvm.read.ptx.sreg.nsmid"
"llvm.nvvm.read.ptx.sreg.ntid.w"
"llvm.nvvm.read.ptx.sreg.ntid.x"
"llvm.nvvm.read.ptx.sreg.ntid.y"
"llvm.nvvm.read.ptx.sreg.ntid.z"
"llvm.nvvm.read.ptx.sreg.nwarpid"
"llvm.nvvm.read.ptx.sreg.pm0"
"llvm.nvvm.read.ptx.sreg.pm1"
"llvm.nvvm.read.ptx.sreg.pm2"
"llvm.nvvm.read.ptx.sreg.pm3"
"llvm.nvvm.read.ptx.sreg.smid"
"llvm.nvvm.read.ptx.sreg.tid.w"
"llvm.nvvm.read.ptx.sreg.tid.x"
"llvm.nvvm.read.ptx.sreg.tid.y"
"llvm.nvvm.read.ptx.sreg.tid.z"
"llvm.nvvm.read.ptx.sreg.warpid"
"llvm.nvvm.read.ptx.sreg.warpsize"
"llvm.nvvm.reflect"
"llvm.nvvm.rotate.b32"
"llvm.nvvm.rotate.b64"
"llvm.nvvm.rotate.right.b64"
"llvm.nvvm.round.d"
"llvm.nvvm.round.f"
"llvm.nvvm.round.ftz.f"
"llvm.nvvm.rsqrt.approx.d"
"llvm.nvvm.rsqrt.approx.f"
"llvm.nvvm.rsqrt.approx.ftz.f"
"llvm.nvvm.sad.i"
"llvm.nvvm.sad.ui"
"llvm.nvvm.saturate.d"
"llvm.nvvm.saturate.f"
"llvm.nvvm.saturate.ftz.f"
"llvm.nvvm.shfl.bfly.f32"
"llvm.nvvm.shfl.bfly.i32"
"llvm.nvvm.shfl.down.f32"
"llvm.nvvm.shfl.down.i32"
"llvm.nvvm.shfl.idx.f32"
"llvm.nvvm.shfl.idx.i32"
"llvm.nvvm.shfl.sync.bfly.f32"
"llvm.nvvm.shfl.sync.bfly.i32"
"llvm.nvvm.shfl.sync.down.f32"
"llvm.nvvm.shfl.sync.down.i32"
"llvm.nvvm.shfl.sync.idx.f32"
"llvm.nvvm.shfl.sync.idx.i32"
"llvm.nvvm.shfl.sync.up.f32"
"llvm.nvvm.shfl.sync.up.i32"
"llvm.nvvm.shfl.up.f32"
"llvm.nvvm.shfl.up.i32"
"llvm.nvvm.sin.approx.f"
"llvm.nvvm.sin.approx.ftz.f"
"llvm.nvvm.sqrt.approx.f"
"llvm.nvvm.sqrt.approx.ftz.f"
"llvm.nvvm.sqrt.f"
"llvm.nvvm.sqrt.rm.d"
"llvm.nvvm.sqrt.rm.f"
"llvm.nvvm.sqrt.rm.ftz.f"
"llvm.nvvm.sqrt.rn.d"
"llvm.nvvm.sqrt.rn.f"
"llvm.nvvm.sqrt.rn.ftz.f"
"llvm.nvvm.sqrt.rp.d"
"llvm.nvvm.sqrt.rp.f"
"llvm.nvvm.sqrt.rp.ftz.f"
"llvm.nvvm.sqrt.rz.d"
"llvm.nvvm.sqrt.rz.f"
"llvm.nvvm.sqrt.rz.ftz.f"
"llvm.nvvm.suld.1d.array.i16.clamp"
"llvm.nvvm.suld.1d.array.i16.trap"
"llvm.nvvm.suld.1d.array.i16.zero"
"llvm.nvvm.suld.1d.array.i32.clamp"
"llvm.nvvm.suld.1d.array.i32.trap"
"llvm.nvvm.suld.1d.array.i32.zero"
"llvm.nvvm.suld.1d.array.i64.clamp"
"llvm.nvvm.suld.1d.array.i64.trap"
"llvm.nvvm.suld.1d.array.i64.zero"
"llvm.nvvm.suld.1d.array.i8.clamp"
"llvm.nvvm.suld.1d.array.i8.trap"
"llvm.nvvm.suld.1d.array.i8.zero"
"llvm.nvvm.suld.1d.array.v2i16.clamp"
"llvm.nvvm.suld.1d.array.v2i16.trap"
"llvm.nvvm.suld.1d.array.v2i16.zero"
"llvm.nvvm.suld.1d.array.v2i32.clamp"
"llvm.nvvm.suld.1d.array.v2i32.trap"
"llvm.nvvm.suld.1d.array.v2i32.zero"
"llvm.nvvm.suld.1d.array.v2i64.clamp"
"llvm.nvvm.suld.1d.array.v2i64.trap"
"llvm.nvvm.suld.1d.array.v2i64.zero"
"llvm.nvvm.suld.1d.array.v2i8.clamp"
"llvm.nvvm.suld.1d.array.v2i8.trap"
"llvm.nvvm.suld.1d.array.v2i8.zero"
"llvm.nvvm.suld.1d.array.v4i16.clamp"
"llvm.nvvm.suld.1d.array.v4i16.trap"
"llvm.nvvm.suld.1d.array.v4i16.zero"
"llvm.nvvm.suld.1d.array.v4i32.clamp"
"llvm.nvvm.suld.1d.array.v4i32.trap"
"llvm.nvvm.suld.1d.array.v4i32.zero"
"llvm.nvvm.suld.1d.array.v4i8.clamp"
"llvm.nvvm.suld.1d.array.v4i8.trap"
"llvm.nvvm.suld.1d.array.v4i8.zero"
"llvm.nvvm.suld.1d.i16.clamp"
"llvm.nvvm.suld.1d.i16.trap"
"llvm.nvvm.suld.1d.i16.zero"
"llvm.nvvm.suld.1d.i32.clamp"
"llvm.nvvm.suld.1d.i32.trap"
"llvm.nvvm.suld.1d.i32.zero"
"llvm.nvvm.suld.1d.i64.clamp"
"llvm.nvvm.suld.1d.i64.trap"
"llvm.nvvm.suld.1d.i64.zero"
"llvm.nvvm.suld.1d.i8.clamp"
"llvm.nvvm.suld.1d.i8.trap"
"llvm.nvvm.suld.1d.i8.zero"
"llvm.nvvm.suld.1d.v2i16.clamp"
"llvm.nvvm.suld.1d.v2i16.trap"
"llvm.nvvm.suld.1d.v2i16.zero"
"llvm.nvvm.suld.1d.v2i32.clamp"
"llvm.nvvm.suld.1d.v2i32.trap"
"llvm.nvvm.suld.1d.v2i32.zero"
"llvm.nvvm.suld.1d.v2i64.clamp"
"llvm.nvvm.suld.1d.v2i64.trap"
"llvm.nvvm.suld.1d.v2i64.zero"
"llvm.nvvm.suld.1d.v2i8.clamp"
"llvm.nvvm.suld.1d.v2i8.trap"
"llvm.nvvm.suld.1d.v2i8.zero"
"llvm.nvvm.suld.1d.v4i16.clamp"
"llvm.nvvm.suld.1d.v4i16.trap"
"llvm.nvvm.suld.1d.v4i16.zero"
"llvm.nvvm.suld.1d.v4i32.clamp"
"llvm.nvvm.suld.1d.v4i32.trap"
"llvm.nvvm.suld.1d.v4i32.zero"
"llvm.nvvm.suld.1d.v4i8.clamp"
